
phold:     formato del file elf64-x86-64


Disassemblamento della sezione .init:

0000000000001630 <_init>:
    1630:	48 83 ec 08          	sub    $0x8,%rsp
    1634:	48 8b 05 7d b9 21 00 	mov    0x21b97d(%rip),%rax        # 21cfb8 <__gmon_start__>
    163b:	48 85 c0             	test   %rax,%rax
    163e:	74 02                	je     1642 <_init+0x12>
    1640:	ff d0                	callq  *%rax
    1642:	48 83 c4 08          	add    $0x8,%rsp
    1646:	c3                   	retq   

Disassemblamento della sezione .plt:

0000000000001650 <.plt>:
    1650:	ff 35 12 b7 21 00    	pushq  0x21b712(%rip)        # 21cd68 <_GLOBAL_OFFSET_TABLE_+0x8>
    1656:	ff 25 14 b7 21 00    	jmpq   *0x21b714(%rip)        # 21cd70 <_GLOBAL_OFFSET_TABLE_+0x10>
    165c:	0f 1f 40 00          	nopl   0x0(%rax)

0000000000001660 <munlock@plt>:
    1660:	ff 25 12 b7 21 00    	jmpq   *0x21b712(%rip)        # 21cd78 <munlock@GLIBC_2.2.5>
    1666:	68 00 00 00 00       	pushq  $0x0
    166b:	e9 e0 ff ff ff       	jmpq   1650 <.plt>

0000000000001670 <getenv@plt>:
    1670:	ff 25 0a b7 21 00    	jmpq   *0x21b70a(%rip)        # 21cd80 <getenv@GLIBC_2.2.5>
    1676:	68 01 00 00 00       	pushq  $0x1
    167b:	e9 d0 ff ff ff       	jmpq   1650 <.plt>

0000000000001680 <free@plt>:
    1680:	ff 25 02 b7 21 00    	jmpq   *0x21b702(%rip)        # 21cd88 <free@GLIBC_2.2.5>
    1686:	68 02 00 00 00       	pushq  $0x2
    168b:	e9 c0 ff ff ff       	jmpq   1650 <.plt>

0000000000001690 <putchar@plt>:
    1690:	ff 25 fa b6 21 00    	jmpq   *0x21b6fa(%rip)        # 21cd90 <putchar@GLIBC_2.2.5>
    1696:	68 03 00 00 00       	pushq  $0x3
    169b:	e9 b0 ff ff ff       	jmpq   1650 <.plt>

00000000000016a0 <pthread_create@plt>:
    16a0:	ff 25 f2 b6 21 00    	jmpq   *0x21b6f2(%rip)        # 21cd98 <pthread_create@GLIBC_2.2.5>
    16a6:	68 04 00 00 00       	pushq  $0x4
    16ab:	e9 a0 ff ff ff       	jmpq   1650 <.plt>

00000000000016b0 <abort@plt>:
    16b0:	ff 25 ea b6 21 00    	jmpq   *0x21b6ea(%rip)        # 21cda0 <abort@GLIBC_2.2.5>
    16b6:	68 05 00 00 00       	pushq  $0x5
    16bb:	e9 90 ff ff ff       	jmpq   1650 <.plt>

00000000000016c0 <__errno_location@plt>:
    16c0:	ff 25 e2 b6 21 00    	jmpq   *0x21b6e2(%rip)        # 21cda8 <__errno_location@GLIBC_2.2.5>
    16c6:	68 06 00 00 00       	pushq  $0x6
    16cb:	e9 80 ff ff ff       	jmpq   1650 <.plt>

00000000000016d0 <srandom@plt>:
    16d0:	ff 25 da b6 21 00    	jmpq   *0x21b6da(%rip)        # 21cdb0 <srandom@GLIBC_2.2.5>
    16d6:	68 07 00 00 00       	pushq  $0x7
    16db:	e9 70 ff ff ff       	jmpq   1650 <.plt>

00000000000016e0 <mlock@plt>:
    16e0:	ff 25 d2 b6 21 00    	jmpq   *0x21b6d2(%rip)        # 21cdb8 <mlock@GLIBC_2.2.5>
    16e6:	68 08 00 00 00       	pushq  $0x8
    16eb:	e9 60 ff ff ff       	jmpq   1650 <.plt>

00000000000016f0 <round@plt>:
    16f0:	ff 25 ca b6 21 00    	jmpq   *0x21b6ca(%rip)        # 21cdc0 <round@GLIBC_2.2.5>
    16f6:	68 09 00 00 00       	pushq  $0x9
    16fb:	e9 50 ff ff ff       	jmpq   1650 <.plt>

0000000000001700 <strncpy@plt>:
    1700:	ff 25 c2 b6 21 00    	jmpq   *0x21b6c2(%rip)        # 21cdc8 <strncpy@GLIBC_2.2.5>
    1706:	68 0a 00 00 00       	pushq  $0xa
    170b:	e9 40 ff ff ff       	jmpq   1650 <.plt>

0000000000001710 <strncmp@plt>:
    1710:	ff 25 ba b6 21 00    	jmpq   *0x21b6ba(%rip)        # 21cdd0 <strncmp@GLIBC_2.2.5>
    1716:	68 0b 00 00 00       	pushq  $0xb
    171b:	e9 30 ff ff ff       	jmpq   1650 <.plt>

0000000000001720 <__isoc99_fscanf@plt>:
    1720:	ff 25 b2 b6 21 00    	jmpq   *0x21b6b2(%rip)        # 21cdd8 <__isoc99_fscanf@GLIBC_2.7>
    1726:	68 0c 00 00 00       	pushq  $0xc
    172b:	e9 20 ff ff ff       	jmpq   1650 <.plt>

0000000000001730 <mkdir@plt>:
    1730:	ff 25 aa b6 21 00    	jmpq   *0x21b6aa(%rip)        # 21cde0 <mkdir@GLIBC_2.2.5>
    1736:	68 0d 00 00 00       	pushq  $0xd
    173b:	e9 10 ff ff ff       	jmpq   1650 <.plt>

0000000000001740 <puts@plt>:
    1740:	ff 25 a2 b6 21 00    	jmpq   *0x21b6a2(%rip)        # 21cde8 <puts@GLIBC_2.2.5>
    1746:	68 0e 00 00 00       	pushq  $0xe
    174b:	e9 00 ff ff ff       	jmpq   1650 <.plt>

0000000000001750 <fread@plt>:
    1750:	ff 25 9a b6 21 00    	jmpq   *0x21b69a(%rip)        # 21cdf0 <fread@GLIBC_2.2.5>
    1756:	68 0f 00 00 00       	pushq  $0xf
    175b:	e9 f0 fe ff ff       	jmpq   1650 <.plt>

0000000000001760 <strtod@plt>:
    1760:	ff 25 92 b6 21 00    	jmpq   *0x21b692(%rip)        # 21cdf8 <strtod@GLIBC_2.2.5>
    1766:	68 10 00 00 00       	pushq  $0x10
    176b:	e9 e0 fe ff ff       	jmpq   1650 <.plt>

0000000000001770 <exp@plt>:
    1770:	ff 25 8a b6 21 00    	jmpq   *0x21b68a(%rip)        # 21ce00 <exp@GLIBC_2.2.5>
    1776:	68 11 00 00 00       	pushq  $0x11
    177b:	e9 d0 fe ff ff       	jmpq   1650 <.plt>

0000000000001780 <fclose@plt>:
    1780:	ff 25 82 b6 21 00    	jmpq   *0x21b682(%rip)        # 21ce08 <fclose@GLIBC_2.2.5>
    1786:	68 12 00 00 00       	pushq  $0x12
    178b:	e9 c0 fe ff ff       	jmpq   1650 <.plt>

0000000000001790 <strlen@plt>:
    1790:	ff 25 7a b6 21 00    	jmpq   *0x21b67a(%rip)        # 21ce10 <strlen@GLIBC_2.2.5>
    1796:	68 13 00 00 00       	pushq  $0x13
    179b:	e9 b0 fe ff ff       	jmpq   1650 <.plt>

00000000000017a0 <__stack_chk_fail@plt>:
    17a0:	ff 25 72 b6 21 00    	jmpq   *0x21b672(%rip)        # 21ce18 <__stack_chk_fail@GLIBC_2.4>
    17a6:	68 14 00 00 00       	pushq  $0x14
    17ab:	e9 a0 fe ff ff       	jmpq   1650 <.plt>

00000000000017b0 <mmap@plt>:
    17b0:	ff 25 6a b6 21 00    	jmpq   *0x21b66a(%rip)        # 21ce20 <mmap@GLIBC_2.2.5>
    17b6:	68 15 00 00 00       	pushq  $0x15
    17bb:	e9 90 fe ff ff       	jmpq   1650 <.plt>

00000000000017c0 <system@plt>:
    17c0:	ff 25 62 b6 21 00    	jmpq   *0x21b662(%rip)        # 21ce28 <system@GLIBC_2.2.5>
    17c6:	68 16 00 00 00       	pushq  $0x16
    17cb:	e9 80 fe ff ff       	jmpq   1650 <.plt>

00000000000017d0 <pthread_setaffinity_np@plt>:
    17d0:	ff 25 5a b6 21 00    	jmpq   *0x21b65a(%rip)        # 21ce30 <pthread_setaffinity_np@GLIBC_2.3.4>
    17d6:	68 17 00 00 00       	pushq  $0x17
    17db:	e9 70 fe ff ff       	jmpq   1650 <.plt>

00000000000017e0 <rewind@plt>:
    17e0:	ff 25 52 b6 21 00    	jmpq   *0x21b652(%rip)        # 21ce38 <rewind@GLIBC_2.2.5>
    17e6:	68 18 00 00 00       	pushq  $0x18
    17eb:	e9 60 fe ff ff       	jmpq   1650 <.plt>

00000000000017f0 <pclose@plt>:
    17f0:	ff 25 4a b6 21 00    	jmpq   *0x21b64a(%rip)        # 21ce40 <pclose@GLIBC_2.2.5>
    17f6:	68 19 00 00 00       	pushq  $0x19
    17fb:	e9 50 fe ff ff       	jmpq   1650 <.plt>

0000000000001800 <gettimeofday@plt>:
    1800:	ff 25 42 b6 21 00    	jmpq   *0x21b642(%rip)        # 21ce48 <gettimeofday@GLIBC_2.2.5>
    1806:	68 1a 00 00 00       	pushq  $0x1a
    180b:	e9 40 fe ff ff       	jmpq   1650 <.plt>

0000000000001810 <log2@plt>:
    1810:	ff 25 3a b6 21 00    	jmpq   *0x21b63a(%rip)        # 21ce50 <log2@GLIBC_2.2.5>
    1816:	68 1b 00 00 00       	pushq  $0x1b
    181b:	e9 30 fe ff ff       	jmpq   1650 <.plt>

0000000000001820 <__assert_fail@plt>:
    1820:	ff 25 32 b6 21 00    	jmpq   *0x21b632(%rip)        # 21ce58 <__assert_fail@GLIBC_2.2.5>
    1826:	68 1c 00 00 00       	pushq  $0x1c
    182b:	e9 20 fe ff ff       	jmpq   1650 <.plt>

0000000000001830 <fputs@plt>:
    1830:	ff 25 2a b6 21 00    	jmpq   *0x21b62a(%rip)        # 21ce60 <fputs@GLIBC_2.2.5>
    1836:	68 1d 00 00 00       	pushq  $0x1d
    183b:	e9 10 fe ff ff       	jmpq   1650 <.plt>

0000000000001840 <strtof@plt>:
    1840:	ff 25 22 b6 21 00    	jmpq   *0x21b622(%rip)        # 21ce68 <strtof@GLIBC_2.2.5>
    1846:	68 1e 00 00 00       	pushq  $0x1e
    184b:	e9 00 fe ff ff       	jmpq   1650 <.plt>

0000000000001850 <memset@plt>:
    1850:	ff 25 1a b6 21 00    	jmpq   *0x21b61a(%rip)        # 21ce70 <memset@GLIBC_2.2.5>
    1856:	68 1f 00 00 00       	pushq  $0x1f
    185b:	e9 f0 fd ff ff       	jmpq   1650 <.plt>

0000000000001860 <pow@plt>:
    1860:	ff 25 12 b6 21 00    	jmpq   *0x21b612(%rip)        # 21ce78 <pow@GLIBC_2.2.5>
    1866:	68 20 00 00 00       	pushq  $0x20
    186b:	e9 e0 fd ff ff       	jmpq   1650 <.plt>

0000000000001870 <ioctl@plt>:
    1870:	ff 25 0a b6 21 00    	jmpq   *0x21b60a(%rip)        # 21ce80 <ioctl@GLIBC_2.2.5>
    1876:	68 21 00 00 00       	pushq  $0x21
    187b:	e9 d0 fd ff ff       	jmpq   1650 <.plt>

0000000000001880 <log@plt>:
    1880:	ff 25 02 b6 21 00    	jmpq   *0x21b602(%rip)        # 21ce88 <log@GLIBC_2.2.5>
    1886:	68 22 00 00 00       	pushq  $0x22
    188b:	e9 c0 fd ff ff       	jmpq   1650 <.plt>

0000000000001890 <close@plt>:
    1890:	ff 25 fa b5 21 00    	jmpq   *0x21b5fa(%rip)        # 21ce90 <close@GLIBC_2.2.5>
    1896:	68 23 00 00 00       	pushq  $0x23
    189b:	e9 b0 fd ff ff       	jmpq   1650 <.plt>

00000000000018a0 <read@plt>:
    18a0:	ff 25 f2 b5 21 00    	jmpq   *0x21b5f2(%rip)        # 21ce98 <read@GLIBC_2.2.5>
    18a6:	68 24 00 00 00       	pushq  $0x24
    18ab:	e9 a0 fd ff ff       	jmpq   1650 <.plt>

00000000000018b0 <calloc@plt>:
    18b0:	ff 25 ea b5 21 00    	jmpq   *0x21b5ea(%rip)        # 21cea0 <calloc@GLIBC_2.2.5>
    18b6:	68 25 00 00 00       	pushq  $0x25
    18bb:	e9 90 fd ff ff       	jmpq   1650 <.plt>

00000000000018c0 <strcmp@plt>:
    18c0:	ff 25 e2 b5 21 00    	jmpq   *0x21b5e2(%rip)        # 21cea8 <strcmp@GLIBC_2.2.5>
    18c6:	68 26 00 00 00       	pushq  $0x26
    18cb:	e9 80 fd ff ff       	jmpq   1650 <.plt>

00000000000018d0 <__memcpy_chk@plt>:
    18d0:	ff 25 da b5 21 00    	jmpq   *0x21b5da(%rip)        # 21ceb0 <__memcpy_chk@GLIBC_2.3.4>
    18d6:	68 27 00 00 00       	pushq  $0x27
    18db:	e9 70 fd ff ff       	jmpq   1650 <.plt>

00000000000018e0 <strtol@plt>:
    18e0:	ff 25 d2 b5 21 00    	jmpq   *0x21b5d2(%rip)        # 21ceb8 <strtol@GLIBC_2.2.5>
    18e6:	68 28 00 00 00       	pushq  $0x28
    18eb:	e9 60 fd ff ff       	jmpq   1650 <.plt>

00000000000018f0 <memcpy@plt>:
    18f0:	ff 25 ca b5 21 00    	jmpq   *0x21b5ca(%rip)        # 21cec0 <memcpy@GLIBC_2.14>
    18f6:	68 29 00 00 00       	pushq  $0x29
    18fb:	e9 50 fd ff ff       	jmpq   1650 <.plt>

0000000000001900 <pthread_exit@plt>:
    1900:	ff 25 c2 b5 21 00    	jmpq   *0x21b5c2(%rip)        # 21cec8 <pthread_exit@GLIBC_2.2.5>
    1906:	68 2a 00 00 00       	pushq  $0x2a
    190b:	e9 40 fd ff ff       	jmpq   1650 <.plt>

0000000000001910 <malloc@plt>:
    1910:	ff 25 ba b5 21 00    	jmpq   *0x21b5ba(%rip)        # 21ced0 <malloc@GLIBC_2.2.5>
    1916:	68 2b 00 00 00       	pushq  $0x2b
    191b:	e9 30 fd ff ff       	jmpq   1650 <.plt>

0000000000001920 <fflush@plt>:
    1920:	ff 25 b2 b5 21 00    	jmpq   *0x21b5b2(%rip)        # 21ced8 <fflush@GLIBC_2.2.5>
    1926:	68 2c 00 00 00       	pushq  $0x2c
    192b:	e9 20 fd ff ff       	jmpq   1650 <.plt>

0000000000001930 <__vsnprintf_chk@plt>:
    1930:	ff 25 aa b5 21 00    	jmpq   *0x21b5aa(%rip)        # 21cee0 <__vsnprintf_chk@GLIBC_2.3.4>
    1936:	68 2d 00 00 00       	pushq  $0x2d
    193b:	e9 10 fd ff ff       	jmpq   1650 <.plt>

0000000000001940 <setrlimit@plt>:
    1940:	ff 25 a2 b5 21 00    	jmpq   *0x21b5a2(%rip)        # 21cee8 <setrlimit@GLIBC_2.2.5>
    1946:	68 2e 00 00 00       	pushq  $0x2e
    194b:	e9 00 fd ff ff       	jmpq   1650 <.plt>

0000000000001950 <realloc@plt>:
    1950:	ff 25 9a b5 21 00    	jmpq   *0x21b59a(%rip)        # 21cef0 <realloc@GLIBC_2.2.5>
    1956:	68 2f 00 00 00       	pushq  $0x2f
    195b:	e9 f0 fc ff ff       	jmpq   1650 <.plt>

0000000000001960 <munmap@plt>:
    1960:	ff 25 92 b5 21 00    	jmpq   *0x21b592(%rip)        # 21cef8 <munmap@GLIBC_2.2.5>
    1966:	68 30 00 00 00       	pushq  $0x30
    196b:	e9 e0 fc ff ff       	jmpq   1650 <.plt>

0000000000001970 <__printf_chk@plt>:
    1970:	ff 25 8a b5 21 00    	jmpq   *0x21b58a(%rip)        # 21cf00 <__printf_chk@GLIBC_2.3.4>
    1976:	68 31 00 00 00       	pushq  $0x31
    197b:	e9 d0 fc ff ff       	jmpq   1650 <.plt>

0000000000001980 <srand48_r@plt>:
    1980:	ff 25 82 b5 21 00    	jmpq   *0x21b582(%rip)        # 21cf08 <srand48_r@GLIBC_2.2.5>
    1986:	68 32 00 00 00       	pushq  $0x32
    198b:	e9 c0 fc ff ff       	jmpq   1650 <.plt>

0000000000001990 <pthread_self@plt>:
    1990:	ff 25 7a b5 21 00    	jmpq   *0x21b57a(%rip)        # 21cf10 <pthread_self@GLIBC_2.2.5>
    1996:	68 33 00 00 00       	pushq  $0x33
    199b:	e9 b0 fc ff ff       	jmpq   1650 <.plt>

00000000000019a0 <mprotect@plt>:
    19a0:	ff 25 72 b5 21 00    	jmpq   *0x21b572(%rip)        # 21cf18 <mprotect@GLIBC_2.2.5>
    19a6:	68 34 00 00 00       	pushq  $0x34
    19ab:	e9 a0 fc ff ff       	jmpq   1650 <.plt>

00000000000019b0 <open@plt>:
    19b0:	ff 25 6a b5 21 00    	jmpq   *0x21b56a(%rip)        # 21cf20 <open@GLIBC_2.2.5>
    19b6:	68 35 00 00 00       	pushq  $0x35
    19bb:	e9 90 fc ff ff       	jmpq   1650 <.plt>

00000000000019c0 <access@plt>:
    19c0:	ff 25 62 b5 21 00    	jmpq   *0x21b562(%rip)        # 21cf28 <access@GLIBC_2.2.5>
    19c6:	68 36 00 00 00       	pushq  $0x36
    19cb:	e9 80 fc ff ff       	jmpq   1650 <.plt>

00000000000019d0 <popen@plt>:
    19d0:	ff 25 5a b5 21 00    	jmpq   *0x21b55a(%rip)        # 21cf30 <popen@GLIBC_2.2.5>
    19d6:	68 37 00 00 00       	pushq  $0x37
    19db:	e9 70 fc ff ff       	jmpq   1650 <.plt>

00000000000019e0 <fopen@plt>:
    19e0:	ff 25 52 b5 21 00    	jmpq   *0x21b552(%rip)        # 21cf38 <fopen@GLIBC_2.2.5>
    19e6:	68 38 00 00 00       	pushq  $0x38
    19eb:	e9 60 fc ff ff       	jmpq   1650 <.plt>

00000000000019f0 <perror@plt>:
    19f0:	ff 25 4a b5 21 00    	jmpq   *0x21b54a(%rip)        # 21cf40 <perror@GLIBC_2.2.5>
    19f6:	68 39 00 00 00       	pushq  $0x39
    19fb:	e9 50 fc ff ff       	jmpq   1650 <.plt>

0000000000001a00 <sysconf@plt>:
    1a00:	ff 25 42 b5 21 00    	jmpq   *0x21b542(%rip)        # 21cf48 <sysconf@GLIBC_2.2.5>
    1a06:	68 3a 00 00 00       	pushq  $0x3a
    1a0b:	e9 40 fc ff ff       	jmpq   1650 <.plt>

0000000000001a10 <pthread_join@plt>:
    1a10:	ff 25 3a b5 21 00    	jmpq   *0x21b53a(%rip)        # 21cf50 <pthread_join@GLIBC_2.2.5>
    1a16:	68 3b 00 00 00       	pushq  $0x3b
    1a1b:	e9 30 fc ff ff       	jmpq   1650 <.plt>

0000000000001a20 <drand48_r@plt>:
    1a20:	ff 25 32 b5 21 00    	jmpq   *0x21b532(%rip)        # 21cf58 <drand48_r@GLIBC_2.2.5>
    1a26:	68 3c 00 00 00       	pushq  $0x3c
    1a2b:	e9 20 fc ff ff       	jmpq   1650 <.plt>

0000000000001a30 <__memset_chk@plt>:
    1a30:	ff 25 2a b5 21 00    	jmpq   *0x21b52a(%rip)        # 21cf60 <__memset_chk@GLIBC_2.3.4>
    1a36:	68 3d 00 00 00       	pushq  $0x3d
    1a3b:	e9 10 fc ff ff       	jmpq   1650 <.plt>

0000000000001a40 <exit@plt>:
    1a40:	ff 25 22 b5 21 00    	jmpq   *0x21b522(%rip)        # 21cf68 <exit@GLIBC_2.2.5>
    1a46:	68 3e 00 00 00       	pushq  $0x3e
    1a4b:	e9 00 fc ff ff       	jmpq   1650 <.plt>

0000000000001a50 <fwrite@plt>:
    1a50:	ff 25 1a b5 21 00    	jmpq   *0x21b51a(%rip)        # 21cf70 <fwrite@GLIBC_2.2.5>
    1a56:	68 3f 00 00 00       	pushq  $0x3f
    1a5b:	e9 f0 fb ff ff       	jmpq   1650 <.plt>

0000000000001a60 <__fprintf_chk@plt>:
    1a60:	ff 25 12 b5 21 00    	jmpq   *0x21b512(%rip)        # 21cf78 <__fprintf_chk@GLIBC_2.3.4>
    1a66:	68 40 00 00 00       	pushq  $0x40
    1a6b:	e9 e0 fb ff ff       	jmpq   1650 <.plt>

0000000000001a70 <posix_memalign@plt>:
    1a70:	ff 25 0a b5 21 00    	jmpq   *0x21b50a(%rip)        # 21cf80 <posix_memalign@GLIBC_2.2.5>
    1a76:	68 41 00 00 00       	pushq  $0x41
    1a7b:	e9 d0 fb ff ff       	jmpq   1650 <.plt>

0000000000001a80 <sqrt@plt>:
    1a80:	ff 25 02 b5 21 00    	jmpq   *0x21b502(%rip)        # 21cf88 <sqrt@GLIBC_2.2.5>
    1a86:	68 42 00 00 00       	pushq  $0x42
    1a8b:	e9 c0 fb ff ff       	jmpq   1650 <.plt>

0000000000001a90 <strerror@plt>:
    1a90:	ff 25 fa b4 21 00    	jmpq   *0x21b4fa(%rip)        # 21cf90 <strerror@GLIBC_2.2.5>
    1a96:	68 43 00 00 00       	pushq  $0x43
    1a9b:	e9 b0 fb ff ff       	jmpq   1650 <.plt>

0000000000001aa0 <sleep@plt>:
    1aa0:	ff 25 f2 b4 21 00    	jmpq   *0x21b4f2(%rip)        # 21cf98 <sleep@GLIBC_2.2.5>
    1aa6:	68 44 00 00 00       	pushq  $0x44
    1aab:	e9 a0 fb ff ff       	jmpq   1650 <.plt>

0000000000001ab0 <__sprintf_chk@plt>:
    1ab0:	ff 25 ea b4 21 00    	jmpq   *0x21b4ea(%rip)        # 21cfa0 <__sprintf_chk@GLIBC_2.3.4>
    1ab6:	68 45 00 00 00       	pushq  $0x45
    1abb:	e9 90 fb ff ff       	jmpq   1650 <.plt>

Disassemblamento della sezione .plt.got:

0000000000001ac0 <__cxa_finalize@plt>:
    1ac0:	ff 25 02 b5 21 00    	jmpq   *0x21b502(%rip)        # 21cfc8 <__cxa_finalize@GLIBC_2.2.5>
    1ac6:	66 90                	xchg   %ax,%ax

Disassemblamento della sezione .text:

0000000000001ad0 <main>:
    1ad0:	41 54                	push   %r12
    1ad2:	89 fa                	mov    %edi,%edx
    1ad4:	55                   	push   %rbp
    1ad5:	48 89 f5             	mov    %rsi,%rbp
    1ad8:	48 8d 35 33 72 01 00 	lea    0x17233(%rip),%rsi        # 18d12 <__PRETTY_FUNCTION__.6556+0x2f52>
    1adf:	53                   	push   %rbx
    1ae0:	89 fb                	mov    %edi,%ebx
    1ae2:	bf 01 00 00 00       	mov    $0x1,%edi
    1ae7:	48 83 ec 30          	sub    $0x30,%rsp
    1aeb:	64 48 8b 04 25 28 00 	mov    %fs:0x28,%rax
    1af2:	00 00 
    1af4:	48 89 44 24 28       	mov    %rax,0x28(%rsp)
    1af9:	31 c0                	xor    %eax,%eax
    1afb:	e8 70 fe ff ff       	callq  1970 <__printf_chk@plt>
    1b00:	48 8d 3d fe 71 01 00 	lea    0x171fe(%rip),%rdi        # 18d05 <__PRETTY_FUNCTION__.6556+0x2f45>
    1b07:	e8 34 fc ff ff       	callq  1740 <puts@plt>
    1b0c:	48 8d 3d 6d 54 01 00 	lea    0x1546d(%rip),%rdi        # 16f80 <__PRETTY_FUNCTION__.6556+0x11c0>
    1b13:	e8 a8 fc ff ff       	callq  17c0 <system@plt>
    1b18:	83 fb 02             	cmp    $0x2,%ebx
    1b1b:	0f 8e c6 02 00 00    	jle    1de7 <main+0x317>
    1b21:	48 8b 7d 08          	mov    0x8(%rbp),%rdi
    1b25:	ba 0a 00 00 00       	mov    $0xa,%edx
    1b2a:	31 f6                	xor    %esi,%esi
    1b2c:	e8 af fd ff ff       	callq  18e0 <strtol@plt>
    1b31:	48 8b 7d 10          	mov    0x10(%rbp),%rdi
    1b35:	ba 0a 00 00 00       	mov    $0xa,%edx
    1b3a:	31 f6                	xor    %esi,%esi
    1b3c:	89 05 46 76 34 00    	mov    %eax,0x347646(%rip)        # 349188 <n_cores>
    1b42:	e8 99 fd ff ff       	callq  18e0 <strtol@plt>
    1b47:	89 05 63 76 34 00    	mov    %eax,0x347663(%rip)        # 3491b0 <n_prc_tot>
    1b4d:	83 fb 03             	cmp    $0x3,%ebx
    1b50:	0f 85 01 02 00 00    	jne    1d57 <main+0x287>
    1b56:	48 bf 00 00 00 00 0e 	movabs $0xe00000000,%rdi
    1b5d:	00 00 00 
    1b60:	e8 4b 26 01 00       	callq  141b0 <set_max_memory_allocable>
    1b65:	31 c0                	xor    %eax,%eax
    1b67:	e8 44 27 01 00       	callq  142b0 <test_memory_limit>
    1b6c:	48 8d 3d eb 71 01 00 	lea    0x171eb(%rip),%rdi        # 18d5e <__PRETTY_FUNCTION__.6556+0x2f9e>
    1b73:	e8 c8 fb ff ff       	callq  1740 <puts@plt>
    1b78:	48 89 e7             	mov    %rsp,%rdi
    1b7b:	31 f6                	xor    %esi,%esi
    1b7d:	e8 7e fc ff ff       	callq  1800 <gettimeofday@plt>
    1b82:	0f 31                	rdtsc  
    1b84:	48 c1 e2 20          	shl    $0x20,%rdx
    1b88:	89 c0                	mov    %eax,%eax
    1b8a:	48 09 c2             	or     %rax,%rdx
    1b8d:	31 c0                	xor    %eax,%eax
    1b8f:	48 89 d5             	mov    %rdx,%rbp
    1b92:	e8 29 c8 00 00       	callq  e3c0 <start_simulation>
    1b97:	48 8d 7c 24 10       	lea    0x10(%rsp),%rdi
    1b9c:	31 f6                	xor    %esi,%esi
    1b9e:	e8 5d fc ff ff       	callq  1800 <gettimeofday@plt>
    1ba3:	48 8b 4c 24 18       	mov    0x18(%rsp),%rcx
    1ba8:	66 0f ef c0          	pxor   %xmm0,%xmm0
    1bac:	48 bf cf f7 53 e3 a5 	movabs $0x20c49ba5e353f7cf,%rdi
    1bb3:	9b c4 20 
    1bb6:	69 74 24 10 e8 03 00 	imul   $0x3e8,0x10(%rsp),%esi
    1bbd:	00 
    1bbe:	48 89 c8             	mov    %rcx,%rax
    1bc1:	48 c1 f9 3f          	sar    $0x3f,%rcx
    1bc5:	48 f7 ef             	imul   %rdi
    1bc8:	69 04 24 e8 03 00 00 	imul   $0x3e8,(%rsp),%eax
    1bcf:	48 c1 fa 07          	sar    $0x7,%rdx
    1bd3:	48 29 ca             	sub    %rcx,%rdx
    1bd6:	8d 0c 16             	lea    (%rsi,%rdx,1),%ecx
    1bd9:	48 8b 74 24 08       	mov    0x8(%rsp),%rsi
    1bde:	29 c1                	sub    %eax,%ecx
    1be0:	48 89 f0             	mov    %rsi,%rax
    1be3:	48 c1 fe 3f          	sar    $0x3f,%rsi
    1be7:	48 f7 ef             	imul   %rdi
    1bea:	31 c0                	xor    %eax,%eax
    1bec:	48 89 d7             	mov    %rdx,%rdi
    1bef:	48 c1 ff 07          	sar    $0x7,%rdi
    1bf3:	48 29 f7             	sub    %rsi,%rdi
    1bf6:	29 f9                	sub    %edi,%ecx
    1bf8:	f2 0f 2a c1          	cvtsi2sd %ecx,%xmm0
    1bfc:	f2 0f 5e 05 6c 74 01 	divsd  0x1746c(%rip),%xmm0        # 19070 <__PRETTY_FUNCTION__.6556+0x32b0>
    1c03:	00 
    1c04:	f2 0f 11 05 9c 75 34 	movsd  %xmm0,0x34759c(%rip)        # 3491a8 <simduration>
    1c0b:	00 
    1c0c:	e8 ff fa 00 00       	callq  11710 <print_statistics>
    1c11:	bf 01 00 00 00       	mov    $0x1,%edi
    1c16:	b8 01 00 00 00       	mov    $0x1,%eax
    1c1b:	f2 0f 10 05 85 75 34 	movsd  0x347585(%rip),%xmm0        # 3491a8 <simduration>
    1c22:	00 
    1c23:	48 8d 35 be 53 01 00 	lea    0x153be(%rip),%rsi        # 16fe8 <__PRETTY_FUNCTION__.6556+0x1228>
    1c2a:	e8 41 fd ff ff       	callq  1970 <__printf_chk@plt>
    1c2f:	0f 31                	rdtsc  
    1c31:	48 c1 e2 20          	shl    $0x20,%rdx
    1c35:	89 c3                	mov    %eax,%ebx
    1c37:	48 09 d3             	or     %rdx,%rbx
    1c3a:	48 39 dd             	cmp    %rbx,%rbp
    1c3d:	0f 87 80 01 00 00    	ja     1dc3 <main+0x2f3>
    1c43:	48 29 eb             	sub    %rbp,%rbx
    1c46:	48 8d 35 c3 53 01 00 	lea    0x153c3(%rip),%rsi        # 17010 <__PRETTY_FUNCTION__.6556+0x1250>
    1c4d:	bf 01 00 00 00       	mov    $0x1,%edi
    1c52:	31 c0                	xor    %eax,%eax
    1c54:	48 89 da             	mov    %rbx,%rdx
    1c57:	e8 14 fd ff ff       	callq  1970 <__printf_chk@plt>
    1c5c:	48 c7 c0 88 5e ff ff 	mov    $0xffffffffffff5e88,%rax
    1c63:	bf 01 00 00 00       	mov    $0x1,%edi
    1c68:	48 8d 35 07 71 01 00 	lea    0x17107(%rip),%rsi        # 18d76 <__PRETTY_FUNCTION__.6556+0x2fb6>
    1c6f:	64 f2 0f 10 00       	movsd  %fs:(%rax),%xmm0
    1c74:	b8 01 00 00 00       	mov    $0x1,%eax
    1c79:	e8 f2 fc ff ff       	callq  1970 <__printf_chk@plt>
    1c7e:	48 8b 05 93 75 34 00 	mov    0x347593(%rip),%rax        # 349218 <system_stats>
    1c85:	bf 01 00 00 00       	mov    $0x1,%edi
    1c8a:	f2 0f 10 0d 16 75 34 	movsd  0x347516(%rip),%xmm1        # 3491a8 <simduration>
    1c91:	00 
    1c92:	48 8d 35 eb 70 01 00 	lea    0x170eb(%rip),%rsi        # 18d84 <__PRETTY_FUNCTION__.6556+0x2fc4>
    1c99:	f2 0f 10 40 10       	movsd  0x10(%rax),%xmm0
    1c9e:	b8 01 00 00 00       	mov    $0x1,%eax
    1ca3:	f2 0f 5e c1          	divsd  %xmm1,%xmm0
    1ca7:	e8 c4 fc ff ff       	callq  1970 <__printf_chk@plt>
    1cac:	48 8b 05 65 75 34 00 	mov    0x347565(%rip),%rax        # 349218 <system_stats>
    1cb3:	bf 01 00 00 00       	mov    $0x1,%edi
    1cb8:	f2 0f 10 0d e8 74 34 	movsd  0x3474e8(%rip),%xmm1        # 3491a8 <simduration>
    1cbf:	00 
    1cc0:	48 8d 35 71 53 01 00 	lea    0x15371(%rip),%rsi        # 17038 <__PRETTY_FUNCTION__.6556+0x1278>
    1cc7:	f2 0f 10 40 10       	movsd  0x10(%rax),%xmm0
    1ccc:	8b 05 b6 74 34 00    	mov    0x3474b6(%rip),%eax        # 349188 <n_cores>
    1cd2:	f2 0f 5e c1          	divsd  %xmm1,%xmm0
    1cd6:	66 0f ef c9          	pxor   %xmm1,%xmm1
    1cda:	f2 48 0f 2a c8       	cvtsi2sd %rax,%xmm1
    1cdf:	b8 01 00 00 00       	mov    $0x1,%eax
    1ce4:	f2 0f 5e c1          	divsd  %xmm1,%xmm0
    1ce8:	e8 83 fc ff ff       	callq  1970 <__printf_chk@plt>
    1ced:	48 8d 3d a6 70 01 00 	lea    0x170a6(%rip),%rdi        # 18d9a <__PRETTY_FUNCTION__.6556+0x2fda>
    1cf4:	e8 a7 08 01 00       	callq  125a0 <write_results_on_csv>
    1cf9:	31 c0                	xor    %eax,%eax
    1cfb:	e8 90 e5 00 00       	callq  10290 <statistics_fini>
    1d00:	0f b6 05 89 b3 21 00 	movzbl 0x21b389(%rip),%eax        # 21d090 <sim_error>
    1d07:	84 c0                	test   %al,%al
    1d09:	0f 85 9c 00 00 00    	jne    1dab <main+0x2db>
    1d0f:	0f b6 05 6f b3 21 00 	movzbl 0x21b36f(%rip),%eax        # 21d085 <stop>
    1d16:	84 c0                	test   %al,%al
    1d18:	75 0b                	jne    1d25 <main+0x255>
    1d1a:	0f b6 05 63 b3 21 00 	movzbl 0x21b363(%rip),%eax        # 21d084 <stop_timer>
    1d21:	84 c0                	test   %al,%al
    1d23:	74 13                	je     1d38 <main+0x268>
    1d25:	48 8d 35 54 53 01 00 	lea    0x15354(%rip),%rsi        # 17080 <__PRETTY_FUNCTION__.6556+0x12c0>
    1d2c:	bf 01 00 00 00       	mov    $0x1,%edi
    1d31:	31 c0                	xor    %eax,%eax
    1d33:	e8 38 fc ff ff       	callq  1970 <__printf_chk@plt>
    1d38:	48 8b 44 24 28       	mov    0x28(%rsp),%rax
    1d3d:	64 48 33 04 25 28 00 	xor    %fs:0x28,%rax
    1d44:	00 00 
    1d46:	0f 85 96 00 00 00    	jne    1de2 <main+0x312>
    1d4c:	48 83 c4 30          	add    $0x30,%rsp
    1d50:	31 c0                	xor    %eax,%eax
    1d52:	5b                   	pop    %rbx
    1d53:	5d                   	pop    %rbp
    1d54:	41 5c                	pop    %r12
    1d56:	c3                   	retq   
    1d57:	48 8b 7d 18          	mov    0x18(%rbp),%rdi
    1d5b:	ba 0a 00 00 00       	mov    $0xa,%edx
    1d60:	31 f6                	xor    %esi,%esi
    1d62:	e8 79 fb ff ff       	callq  18e0 <strtol@plt>
    1d67:	89 05 13 b3 21 00    	mov    %eax,0x21b313(%rip)        # 21d080 <sec_stop>
    1d6d:	83 fb 05             	cmp    $0x5,%ebx
    1d70:	0f 85 e0 fd ff ff    	jne    1b56 <main+0x86>
    1d76:	4c 8b 65 20          	mov    0x20(%rbp),%r12
    1d7a:	ba 04 00 00 00       	mov    $0x4,%edx
    1d7f:	48 8d 35 bd 6f 01 00 	lea    0x16fbd(%rip),%rsi        # 18d43 <__PRETTY_FUNCTION__.6556+0x2f83>
    1d86:	4c 89 e7             	mov    %r12,%rdi
    1d89:	e8 82 f9 ff ff       	callq  1710 <strncmp@plt>
    1d8e:	85 c0                	test   %eax,%eax
    1d90:	75 7d                	jne    1e0f <main+0x33f>
    1d92:	4c 89 e2             	mov    %r12,%rdx
    1d95:	48 8d 35 ac 6f 01 00 	lea    0x16fac(%rip),%rsi        # 18d48 <__PRETTY_FUNCTION__.6556+0x2f88>
    1d9c:	bf 01 00 00 00       	mov    $0x1,%edi
    1da1:	e8 ca fb ff ff       	callq  1970 <__printf_chk@plt>
    1da6:	e9 ab fd ff ff       	jmpq   1b56 <main+0x86>
    1dab:	48 8d 35 a6 52 01 00 	lea    0x152a6(%rip),%rsi        # 17058 <__PRETTY_FUNCTION__.6556+0x1298>
    1db2:	bf 01 00 00 00       	mov    $0x1,%edi
    1db7:	31 c0                	xor    %eax,%eax
    1db9:	e8 b2 fb ff ff       	callq  1970 <__printf_chk@plt>
    1dbe:	e9 75 ff ff ff       	jmpq   1d38 <main+0x268>
    1dc3:	48 89 d9             	mov    %rbx,%rcx
    1dc6:	48 89 ea             	mov    %rbp,%rdx
    1dc9:	48 8d 35 f0 2f 01 00 	lea    0x12ff0(%rip),%rsi        # 14dc0 <__PRETTY_FUNCTION__.5886+0x5e0>
    1dd0:	31 c0                	xor    %eax,%eax
    1dd2:	bf 01 00 00 00       	mov    $0x1,%edi
    1dd7:	e8 94 fb ff ff       	callq  1970 <__printf_chk@plt>
    1ddc:	cc                   	int3   
    1ddd:	e9 61 fe ff ff       	jmpq   1c43 <main+0x173>
    1de2:	e8 b9 f9 ff ff       	callq  17a0 <__stack_chk_fail@plt>
    1de7:	48 8b 3d 72 b2 21 00 	mov    0x21b272(%rip),%rdi        # 21d060 <stderr@@GLIBC_2.2.5>
    1dee:	48 8b 4d 00          	mov    0x0(%rbp),%rcx
    1df2:	be 01 00 00 00       	mov    $0x1,%esi
    1df7:	31 c0                	xor    %eax,%eax
    1df9:	48 8d 15 27 6f 01 00 	lea    0x16f27(%rip),%rdx        # 18d27 <__PRETTY_FUNCTION__.6556+0x2f67>
    1e00:	e8 5b fc ff ff       	callq  1a60 <__fprintf_chk@plt>
    1e05:	bf 01 00 00 00       	mov    $0x1,%edi
    1e0a:	e8 31 fc ff ff       	callq  1a40 <exit@plt>
    1e0f:	bf 01 00 00 00       	mov    $0x1,%edi
    1e14:	48 8d 15 28 6f 01 00 	lea    0x16f28(%rip),%rdx        # 18d43 <__PRETTY_FUNCTION__.6556+0x2f83>
    1e1b:	48 8d 35 86 51 01 00 	lea    0x15186(%rip),%rsi        # 16fa8 <__PRETTY_FUNCTION__.6556+0x11e8>
    1e22:	31 c0                	xor    %eax,%eax
    1e24:	e8 47 fb ff ff       	callq  1970 <__printf_chk@plt>
    1e29:	bf 01 00 00 00       	mov    $0x1,%edi
    1e2e:	e8 0d fc ff ff       	callq  1a40 <exit@plt>
    1e33:	66 2e 0f 1f 84 00 00 	nopw   %cs:0x0(%rax,%rax,1)
    1e3a:	00 00 00 
    1e3d:	0f 1f 00             	nopl   (%rax)

0000000000001e40 <_start>:
    1e40:	31 ed                	xor    %ebp,%ebp
    1e42:	49 89 d1             	mov    %rdx,%r9
    1e45:	5e                   	pop    %rsi
    1e46:	48 89 e2             	mov    %rsp,%rdx
    1e49:	48 83 e4 f0          	and    $0xfffffffffffffff0,%rsp
    1e4d:	50                   	push   %rax
    1e4e:	54                   	push   %rsp
    1e4f:	4c 8d 05 1a 28 01 00 	lea    0x1281a(%rip),%r8        # 14670 <__libc_csu_fini>
    1e56:	48 8d 0d a3 27 01 00 	lea    0x127a3(%rip),%rcx        # 14600 <__libc_csu_init>
    1e5d:	48 8d 3d 6c fc ff ff 	lea    -0x394(%rip),%rdi        # 1ad0 <main>
    1e64:	ff 15 46 b1 21 00    	callq  *0x21b146(%rip)        # 21cfb0 <__libc_start_main@GLIBC_2.2.5>
    1e6a:	f4                   	hlt    
    1e6b:	0f 1f 44 00 00       	nopl   0x0(%rax,%rax,1)

0000000000001e70 <deregister_tm_clones>:
    1e70:	48 8d 3d b1 b1 21 00 	lea    0x21b1b1(%rip),%rdi        # 21d028 <__TMC_END__>
    1e77:	48 8d 05 aa b1 21 00 	lea    0x21b1aa(%rip),%rax        # 21d028 <__TMC_END__>
    1e7e:	48 39 f8             	cmp    %rdi,%rax
    1e81:	74 15                	je     1e98 <deregister_tm_clones+0x28>
    1e83:	48 8b 05 1e b1 21 00 	mov    0x21b11e(%rip),%rax        # 21cfa8 <_ITM_deregisterTMCloneTable>
    1e8a:	48 85 c0             	test   %rax,%rax
    1e8d:	74 09                	je     1e98 <deregister_tm_clones+0x28>
    1e8f:	ff e0                	jmpq   *%rax
    1e91:	0f 1f 80 00 00 00 00 	nopl   0x0(%rax)
    1e98:	c3                   	retq   
    1e99:	0f 1f 80 00 00 00 00 	nopl   0x0(%rax)

0000000000001ea0 <register_tm_clones>:
    1ea0:	48 8d 3d 81 b1 21 00 	lea    0x21b181(%rip),%rdi        # 21d028 <__TMC_END__>
    1ea7:	48 8d 35 7a b1 21 00 	lea    0x21b17a(%rip),%rsi        # 21d028 <__TMC_END__>
    1eae:	48 29 fe             	sub    %rdi,%rsi
    1eb1:	48 89 f0             	mov    %rsi,%rax
    1eb4:	48 c1 ee 3f          	shr    $0x3f,%rsi
    1eb8:	48 c1 f8 03          	sar    $0x3,%rax
    1ebc:	48 01 c6             	add    %rax,%rsi
    1ebf:	48 d1 fe             	sar    %rsi
    1ec2:	74 14                	je     1ed8 <register_tm_clones+0x38>
    1ec4:	48 8b 05 f5 b0 21 00 	mov    0x21b0f5(%rip),%rax        # 21cfc0 <_ITM_registerTMCloneTable>
    1ecb:	48 85 c0             	test   %rax,%rax
    1ece:	74 08                	je     1ed8 <register_tm_clones+0x38>
    1ed0:	ff e0                	jmpq   *%rax
    1ed2:	66 0f 1f 44 00 00    	nopw   0x0(%rax,%rax,1)
    1ed8:	c3                   	retq   
    1ed9:	0f 1f 80 00 00 00 00 	nopl   0x0(%rax)

0000000000001ee0 <__do_global_dtors_aux>:
    1ee0:	80 3d 81 b1 21 00 00 	cmpb   $0x0,0x21b181(%rip)        # 21d068 <completed.8086>
    1ee7:	75 2f                	jne    1f18 <__do_global_dtors_aux+0x38>
    1ee9:	55                   	push   %rbp
    1eea:	48 83 3d d6 b0 21 00 	cmpq   $0x0,0x21b0d6(%rip)        # 21cfc8 <__cxa_finalize@GLIBC_2.2.5>
    1ef1:	00 
    1ef2:	48 89 e5             	mov    %rsp,%rbp
    1ef5:	74 0c                	je     1f03 <__do_global_dtors_aux+0x23>
    1ef7:	48 8b 3d 0a b1 21 00 	mov    0x21b10a(%rip),%rdi        # 21d008 <__dso_handle>
    1efe:	e8 bd fb ff ff       	callq  1ac0 <__cxa_finalize@plt>
    1f03:	e8 68 ff ff ff       	callq  1e70 <deregister_tm_clones>
    1f08:	c6 05 59 b1 21 00 01 	movb   $0x1,0x21b159(%rip)        # 21d068 <completed.8086>
    1f0f:	5d                   	pop    %rbp
    1f10:	c3                   	retq   
    1f11:	0f 1f 80 00 00 00 00 	nopl   0x0(%rax)
    1f18:	c3                   	retq   
    1f19:	0f 1f 80 00 00 00 00 	nopl   0x0(%rax)

0000000000001f20 <frame_dummy>:
    1f20:	e9 7b ff ff ff       	jmpq   1ea0 <register_tm_clones>
    1f25:	66 2e 0f 1f 84 00 00 	nopw   %cs:0x0(%rax,%rax,1)
    1f2c:	00 00 00 
    1f2f:	90                   	nop

0000000000001f30 <ProcessEvent>:
    1f30:	41 54                	push   %r12
    1f32:	66 0f 28 c8          	movapd %xmm0,%xmm1
    1f36:	4d 89 c4             	mov    %r8,%r12
    1f39:	55                   	push   %rbp
    1f3a:	89 fd                	mov    %edi,%ebp
    1f3c:	53                   	push   %rbx
    1f3d:	89 f3                	mov    %esi,%ebx
    1f3f:	48 83 ec 20          	sub    $0x20,%rsp
    1f43:	4d 85 c0             	test   %r8,%r8
    1f46:	74 06                	je     1f4e <ProcessEvent+0x1e>
    1f48:	f2 41 0f 11 04 24    	movsd  %xmm0,(%r12)
    1f4e:	83 fb 08             	cmp    $0x8,%ebx
    1f51:	7f 1d                	jg     1f70 <ProcessEvent+0x40>
    1f53:	83 fb 06             	cmp    $0x6,%ebx
    1f56:	0f 8f 84 00 00 00    	jg     1fe0 <ProcessEvent+0xb0>
    1f5c:	48 8d 3d d5 2a 01 00 	lea    0x12ad5(%rip),%rdi        # 14a38 <__PRETTY_FUNCTION__.5886+0x258>
    1f63:	e8 d8 f7 ff ff       	callq  1740 <puts@plt>
    1f68:	e8 43 f7 ff ff       	callq  16b0 <abort@plt>
    1f6d:	0f 1f 00             	nopl   (%rax)
    1f70:	83 fb 09             	cmp    $0x9,%ebx
    1f73:	75 e7                	jne    1f5c <ProcessEvent+0x2c>
    1f75:	bf 10 00 00 00       	mov    $0x10,%edi
    1f7a:	e8 71 14 00 00       	callq  33f0 <__wrap_malloc>
    1f7f:	48 89 c3             	mov    %rax,%rbx
    1f82:	48 85 c0             	test   %rax,%rax
    1f85:	0f 84 d0 01 00 00    	je     215b <ProcessEvent+0x22b>
    1f8b:	48 89 c7             	mov    %rax,%rdi
    1f8e:	e8 6d 57 00 00       	callq  7700 <SetState>
    1f93:	c7 43 08 00 00 00 00 	movl   $0x0,0x8(%rbx)
    1f9a:	85 ed                	test   %ebp,%ebp
    1f9c:	0f 84 66 01 00 00    	je     2108 <ProcessEvent+0x1d8>
    1fa2:	66 0f ef e4          	pxor   %xmm4,%xmm4
    1fa6:	bb 05 00 00 00       	mov    $0x5,%ebx
    1fab:	f2 0f 11 64 24 08    	movsd  %xmm4,0x8(%rsp)
    1fb1:	e8 7a c8 00 00       	callq  e830 <Random>
    1fb6:	f2 0f 58 44 24 08    	addsd  0x8(%rsp),%xmm0
    1fbc:	31 c9                	xor    %ecx,%ecx
    1fbe:	31 d2                	xor    %edx,%edx
    1fc0:	be 08 00 00 00       	mov    $0x8,%esi
    1fc5:	89 ef                	mov    %ebp,%edi
    1fc7:	e8 d4 5f 00 00       	callq  7fa0 <ScheduleNewEvent>
    1fcc:	83 eb 01             	sub    $0x1,%ebx
    1fcf:	75 e0                	jne    1fb1 <ProcessEvent+0x81>
    1fd1:	48 83 c4 20          	add    $0x20,%rsp
    1fd5:	5b                   	pop    %rbx
    1fd6:	5d                   	pop    %rbp
    1fd7:	41 5c                	pop    %r12
    1fd9:	c3                   	retq   
    1fda:	66 0f 1f 44 00 00    	nopw   0x0(%rax,%rax,1)
    1fe0:	f2 0f 11 4c 24 10    	movsd  %xmm1,0x10(%rsp)
    1fe6:	e8 45 c8 00 00       	callq  e830 <Random>
    1feb:	41 83 44 24 08 01    	addl   $0x1,0x8(%r12)
    1ff1:	48 8b 05 c8 2f 01 00 	mov    0x12fc8(%rip),%rax        # 14fc0 <__PRETTY_FUNCTION__.5886+0x7e0>
    1ff8:	66 48 0f 6e c0       	movq   %rax,%xmm0
    1ffd:	e8 ae cc 00 00       	callq  ecb0 <Expent>
    2002:	66 0f ef db          	pxor   %xmm3,%xmm3
    2006:	f2 0f 10 4c 24 10    	movsd  0x10(%rsp),%xmm1
    200c:	f2 0f 58 c3          	addsd  %xmm3,%xmm0
    2010:	f2 0f 11 5c 24 08    	movsd  %xmm3,0x8(%rsp)
    2016:	f2 0f 58 c1          	addsd  %xmm1,%xmm0
    201a:	66 0f 2f c8          	comisd %xmm0,%xmm1
    201e:	0f 87 ac 00 00 00    	ja     20d0 <ProcessEvent+0x1a0>
    2024:	83 fb 08             	cmp    $0x8,%ebx
    2027:	75 a8                	jne    1fd1 <ProcessEvent+0xa1>
    2029:	31 c9                	xor    %ecx,%ecx
    202b:	31 d2                	xor    %edx,%edx
    202d:	be 08 00 00 00       	mov    $0x8,%esi
    2032:	89 ef                	mov    %ebp,%edi
    2034:	f2 0f 11 4c 24 10    	movsd  %xmm1,0x10(%rsp)
    203a:	e8 61 5f 00 00       	callq  7fa0 <ScheduleNewEvent>
    203f:	48 8b 05 7a 2f 01 00 	mov    0x12f7a(%rip),%rax        # 14fc0 <__PRETTY_FUNCTION__.5886+0x7e0>
    2046:	66 48 0f 6e c0       	movq   %rax,%xmm0
    204b:	e8 60 cc 00 00       	callq  ecb0 <Expent>
    2050:	f2 0f 58 44 24 08    	addsd  0x8(%rsp),%xmm0
    2056:	f2 0f 10 4c 24 10    	movsd  0x10(%rsp),%xmm1
    205c:	f2 0f 58 c1          	addsd  %xmm1,%xmm0
    2060:	66 0f 2f c8          	comisd %xmm0,%xmm1
    2064:	f2 0f 11 44 24 08    	movsd  %xmm0,0x8(%rsp)
    206a:	0f 87 d0 00 00 00    	ja     2140 <ProcessEvent+0x210>
    2070:	bf ea 03 00 00       	mov    $0x3ea,%edi
    2075:	e8 a6 a0 00 00       	callq  c120 <FindReceiver>
    207a:	f2 0f 10 44 24 08    	movsd  0x8(%rsp),%xmm0
    2080:	31 c9                	xor    %ecx,%ecx
    2082:	31 d2                	xor    %edx,%edx
    2084:	89 c7                	mov    %eax,%edi
    2086:	be 07 00 00 00       	mov    $0x7,%esi
    208b:	e8 10 5f 00 00       	callq  7fa0 <ScheduleNewEvent>
    2090:	e8 9b c7 00 00       	callq  e830 <Random>
    2095:	f2 0f 10 0d 2b 2f 01 	movsd  0x12f2b(%rip),%xmm1        # 14fc8 <__PRETTY_FUNCTION__.5886+0x7e8>
    209c:	00 
    209d:	66 0f 2f c8          	comisd %xmm0,%xmm1
    20a1:	0f 86 2a ff ff ff    	jbe    1fd1 <ProcessEvent+0xa1>
    20a7:	bf ea 03 00 00       	mov    $0x3ea,%edi
    20ac:	e8 6f a0 00 00       	callq  c120 <FindReceiver>
    20b1:	f2 0f 10 44 24 08    	movsd  0x8(%rsp),%xmm0
    20b7:	31 c9                	xor    %ecx,%ecx
    20b9:	31 d2                	xor    %edx,%edx
    20bb:	48 83 c4 20          	add    $0x20,%rsp
    20bf:	89 c7                	mov    %eax,%edi
    20c1:	be 07 00 00 00       	mov    $0x7,%esi
    20c6:	5b                   	pop    %rbx
    20c7:	5d                   	pop    %rbp
    20c8:	41 5c                	pop    %r12
    20ca:	e9 d1 5e 00 00       	jmpq   7fa0 <ScheduleNewEvent>
    20cf:	90                   	nop
    20d0:	bf 01 00 00 00       	mov    $0x1,%edi
    20d5:	48 8d 35 2c 29 01 00 	lea    0x1292c(%rip),%rsi        # 14a08 <__PRETTY_FUNCTION__.5886+0x228>
    20dc:	b8 02 00 00 00       	mov    $0x2,%eax
    20e1:	f2 0f 11 4c 24 18    	movsd  %xmm1,0x18(%rsp)
    20e7:	f2 0f 11 44 24 10    	movsd  %xmm0,0x10(%rsp)
    20ed:	e8 7e f8 ff ff       	callq  1970 <__printf_chk@plt>
    20f2:	f2 0f 10 4c 24 18    	movsd  0x18(%rsp),%xmm1
    20f8:	f2 0f 10 44 24 10    	movsd  0x10(%rsp),%xmm0
    20fe:	e9 21 ff ff ff       	jmpq   2024 <ProcessEvent+0xf4>
    2103:	0f 1f 44 00 00       	nopl   0x0(%rax,%rax,1)
    2108:	66 0f ef c0          	pxor   %xmm0,%xmm0
    210c:	41 b8 88 13 00 00    	mov    $0x1388,%r8d
    2112:	b9 01 00 00 00       	mov    $0x1,%ecx
    2117:	ba 64 00 00 00       	mov    $0x64,%edx
    211c:	48 8d 35 65 28 01 00 	lea    0x12865(%rip),%rsi        # 14988 <__PRETTY_FUNCTION__.5886+0x1a8>
    2123:	bf 01 00 00 00       	mov    $0x1,%edi
    2128:	b8 01 00 00 00       	mov    $0x1,%eax
    212d:	e8 3e f8 ff ff       	callq  1970 <__printf_chk@plt>
    2132:	e9 6b fe ff ff       	jmpq   1fa2 <ProcessEvent+0x72>
    2137:	66 0f 1f 84 00 00 00 	nopw   0x0(%rax,%rax,1)
    213e:	00 00 
    2140:	48 8d 35 c1 28 01 00 	lea    0x128c1(%rip),%rsi        # 14a08 <__PRETTY_FUNCTION__.5886+0x228>
    2147:	bf 01 00 00 00       	mov    $0x1,%edi
    214c:	b8 02 00 00 00       	mov    $0x2,%eax
    2151:	e8 1a f8 ff ff       	callq  1970 <__printf_chk@plt>
    2156:	e9 15 ff ff ff       	jmpq   2070 <ProcessEvent+0x140>
    215b:	48 8d 3d 91 26 01 00 	lea    0x12691(%rip),%rdi        # 147f3 <__PRETTY_FUNCTION__.5886+0x13>
    2162:	e8 d9 f5 ff ff       	callq  1740 <puts@plt>
    2167:	83 cf ff             	or     $0xffffffff,%edi
    216a:	e8 d1 f8 ff ff       	callq  1a40 <exit@plt>
    216f:	90                   	nop

0000000000002170 <OnGVT>:
    2170:	81 7e 08 87 13 00 00 	cmpl   $0x1387,0x8(%rsi)
    2177:	0f 97 c0             	seta   %al
    217a:	c3                   	retq   
    217b:	0f 1f 44 00 00       	nopl   0x0(%rax,%rax,1)

0000000000002180 <write_model_parameters_and_separator>:
    2180:	48 83 ec 10          	sub    $0x10,%rsp
    2184:	41 b9 01 00 00 00    	mov    $0x1,%r9d
    218a:	31 c0                	xor    %eax,%eax
    218c:	41 b8 64 00 00 00    	mov    $0x64,%r8d
    2192:	56                   	push   %rsi
    2193:	48 8d 0d 67 26 01 00 	lea    0x12667(%rip),%rcx        # 14801 <__PRETTY_FUNCTION__.5886+0x21>
    219a:	48 8d 15 e7 28 01 00 	lea    0x128e7(%rip),%rdx        # 14a88 <__PRETTY_FUNCTION__.5886+0x2a8>
    21a1:	be 01 00 00 00       	mov    $0x1,%esi
    21a6:	e8 b5 f8 ff ff       	callq  1a60 <__fprintf_chk@plt>
    21ab:	48 83 c4 18          	add    $0x18,%rsp
    21af:	c3                   	retq   

00000000000021b0 <allocate_pages>:
    21b0:	c1 e7 0c             	shl    $0xc,%edi
    21b3:	48 83 ec 08          	sub    $0x8,%rsp
    21b7:	45 31 c9             	xor    %r9d,%r9d
    21ba:	45 31 c0             	xor    %r8d,%r8d
    21bd:	48 63 f7             	movslq %edi,%rsi
    21c0:	ba 03 00 00 00       	mov    $0x3,%edx
    21c5:	31 ff                	xor    %edi,%edi
    21c7:	b9 22 00 00 00       	mov    $0x22,%ecx
    21cc:	e8 df f5 ff ff       	callq  17b0 <mmap@plt>
    21d1:	ba 00 00 00 00       	mov    $0x0,%edx
    21d6:	48 83 f8 ff          	cmp    $0xffffffffffffffff,%rax
    21da:	48 0f 44 c2          	cmove  %rdx,%rax
    21de:	48 83 c4 08          	add    $0x8,%rsp
    21e2:	c3                   	retq   
    21e3:	0f 1f 00             	nopl   (%rax)
    21e6:	66 2e 0f 1f 84 00 00 	nopw   %cs:0x0(%rax,%rax,1)
    21ed:	00 00 00 

00000000000021f0 <audit>:
    21f0:	48 83 ec 08          	sub    $0x8,%rsp
    21f4:	48 8d 15 85 2f 32 00 	lea    0x322f85(%rip),%rdx        # 325180 <maps>
    21fb:	48 8d 35 05 26 01 00 	lea    0x12605(%rip),%rsi        # 14807 <__PRETTY_FUNCTION__.5886+0x27>
    2202:	31 c0                	xor    %eax,%eax
    2204:	bf 01 00 00 00       	mov    $0x1,%edi
    2209:	e8 62 f7 ff ff       	callq  1970 <__printf_chk@plt>
    220e:	b9 00 10 00 00       	mov    $0x1000,%ecx
    2213:	31 c0                	xor    %eax,%eax
    2215:	48 83 c4 08          	add    $0x8,%rsp
    2219:	41 b8 10 00 00 00    	mov    $0x10,%r8d
    221f:	ba 00 50 00 00       	mov    $0x5000,%edx
    2224:	bf 01 00 00 00       	mov    $0x1,%edi
    2229:	48 8d 35 80 28 01 00 	lea    0x12880(%rip),%rsi        # 14ab0 <__PRETTY_FUNCTION__.5886+0x2d0>
    2230:	e9 3b f7 ff ff       	jmpq   1970 <__printf_chk@plt>
    2235:	90                   	nop
    2236:	66 2e 0f 1f 84 00 00 	nopw   %cs:0x0(%rax,%rax,1)
    223d:	00 00 00 

0000000000002240 <audit_map>:
    2240:	3b 3d ca ad 21 00    	cmp    0x21adca(%rip),%edi        # 21d010 <handled_sobjs>
    2246:	7d 78                	jge    22c0 <audit_map+0x80>
    2248:	41 55                	push   %r13
    224a:	89 ff                	mov    %edi,%edi
    224c:	4c 8d 2d 2d 2f 32 00 	lea    0x322f2d(%rip),%r13        # 325180 <maps>
    2253:	41 54                	push   %r12
    2255:	48 8d 04 ff          	lea    (%rdi,%rdi,8),%rax
    2259:	55                   	push   %rbp
    225a:	4c 8d 24 c5 00 00 00 	lea    0x0(,%rax,8),%r12
    2261:	00 
    2262:	53                   	push   %rbx
    2263:	31 db                	xor    %ebx,%ebx
    2265:	48 83 ec 08          	sub    $0x8,%rsp
    2269:	41 8b 44 c5 0c       	mov    0xc(%r13,%rax,8),%eax
    226e:	85 c0                	test   %eax,%eax
    2270:	7e 3b                	jle    22ad <audit_map+0x6d>
    2272:	66 0f 1f 44 00 00    	nopw   0x0(%rax,%rax,1)
    2278:	48 89 d9             	mov    %rbx,%rcx
    227b:	4b 8d 6c 25 00       	lea    0x0(%r13,%r12,1),%rbp
    2280:	89 da                	mov    %ebx,%edx
    2282:	bf 01 00 00 00       	mov    $0x1,%edi
    2287:	48 c1 e1 04          	shl    $0x4,%rcx
    228b:	48 03 4d 00          	add    0x0(%rbp),%rcx
    228f:	31 c0                	xor    %eax,%eax
    2291:	48 83 c3 01          	add    $0x1,%rbx
    2295:	44 8b 49 08          	mov    0x8(%rcx),%r9d
    2299:	4c 8b 01             	mov    (%rcx),%r8
    229c:	48 8d 35 55 28 01 00 	lea    0x12855(%rip),%rsi        # 14af8 <__PRETTY_FUNCTION__.5886+0x318>
    22a3:	e8 c8 f6 ff ff       	callq  1970 <__printf_chk@plt>
    22a8:	39 5d 0c             	cmp    %ebx,0xc(%rbp)
    22ab:	7f cb                	jg     2278 <audit_map+0x38>
    22ad:	48 83 c4 08          	add    $0x8,%rsp
    22b1:	5b                   	pop    %rbx
    22b2:	5d                   	pop    %rbp
    22b3:	41 5c                	pop    %r12
    22b5:	41 5d                	pop    %r13
    22b7:	c3                   	retq   
    22b8:	0f 1f 84 00 00 00 00 	nopl   0x0(%rax,%rax,1)
    22bf:	00 
    22c0:	48 8d 3d 5d 25 01 00 	lea    0x1255d(%rip),%rdi        # 14824 <__PRETTY_FUNCTION__.5886+0x44>
    22c7:	e9 74 f4 ff ff       	jmpq   1740 <puts@plt>
    22cc:	0f 1f 40 00          	nopl   0x0(%rax)

00000000000022d0 <allocate_segment>:
    22d0:	3b 3d 3a ad 21 00    	cmp    0x21ad3a(%rip),%edi        # 21d010 <handled_sobjs>
    22d6:	0f 8d e4 00 00 00    	jge    23c0 <allocate_segment+0xf0>
    22dc:	48 85 f6             	test   %rsi,%rsi
    22df:	0f 84 db 00 00 00    	je     23c0 <allocate_segment+0xf0>
    22e5:	41 55                	push   %r13
    22e7:	41 54                	push   %r12
    22e9:	55                   	push   %rbp
    22ea:	48 89 f5             	mov    %rsi,%rbp
    22ed:	81 e6 ff 0f 00 00    	and    $0xfff,%esi
    22f3:	53                   	push   %rbx
    22f4:	48 c1 ed 0c          	shr    $0xc,%rbp
    22f8:	89 fb                	mov    %edi,%ebx
    22fa:	48 83 ec 08          	sub    $0x8,%rsp
    22fe:	48 83 fe 01          	cmp    $0x1,%rsi
    2302:	83 dd ff             	sbb    $0xffffffff,%ebp
    2305:	85 ff                	test   %edi,%edi
    2307:	0f 88 9c 00 00 00    	js     23a9 <allocate_segment+0xd9>
    230d:	81 fd 00 40 00 00    	cmp    $0x4000,%ebp
    2313:	0f 8f 90 00 00 00    	jg     23a9 <allocate_segment+0xd9>
    2319:	48 63 c7             	movslq %edi,%rax
    231c:	48 8d 14 c0          	lea    (%rax,%rax,8),%rdx
    2320:	48 8d 05 59 2e 32 00 	lea    0x322e59(%rip),%rax        # 325180 <maps>
    2327:	4c 8d 24 d0          	lea    (%rax,%rdx,8),%r12
    232b:	41 8b 44 24 0c       	mov    0xc(%r12),%eax
    2330:	41 3b 44 24 08       	cmp    0x8(%r12),%eax
    2335:	7d 72                	jge    23a9 <allocate_segment+0xd9>
    2337:	83 c0 01             	add    $0x1,%eax
    233a:	49 8b 14 24          	mov    (%r12),%rdx
    233e:	41 89 44 24 0c       	mov    %eax,0xc(%r12)
    2343:	48 98                	cltq   
    2345:	48 c1 e0 04          	shl    $0x4,%rax
    2349:	4c 8d 6c 02 f0       	lea    -0x10(%rdx,%rax,1),%r13
    234e:	4d 85 ed             	test   %r13,%r13
    2351:	74 56                	je     23a9 <allocate_segment+0xd9>
    2353:	89 ee                	mov    %ebp,%esi
    2355:	45 31 c9             	xor    %r9d,%r9d
    2358:	45 31 c0             	xor    %r8d,%r8d
    235b:	31 ff                	xor    %edi,%edi
    235d:	c1 e6 0c             	shl    $0xc,%esi
    2360:	b9 22 00 00 00       	mov    $0x22,%ecx
    2365:	ba 03 00 00 00       	mov    $0x3,%edx
    236a:	48 63 f6             	movslq %esi,%rsi
    236d:	e8 3e f4 ff ff       	callq  17b0 <mmap@plt>
    2372:	48 83 f8 ff          	cmp    $0xffffffffffffffff,%rax
    2376:	74 18                	je     2390 <allocate_segment+0xc0>
    2378:	49 89 45 00          	mov    %rax,0x0(%r13)
    237c:	41 89 6d 08          	mov    %ebp,0x8(%r13)
    2380:	48 83 c4 08          	add    $0x8,%rsp
    2384:	5b                   	pop    %rbx
    2385:	5d                   	pop    %rbp
    2386:	41 5c                	pop    %r12
    2388:	41 5d                	pop    %r13
    238a:	c3                   	retq   
    238b:	0f 1f 44 00 00       	nopl   0x0(%rax,%rax,1)
    2390:	3b 1d 7a ac 21 00    	cmp    0x21ac7a(%rip),%ebx        # 21d010 <handled_sobjs>
    2396:	7d 11                	jge    23a9 <allocate_segment+0xd9>
    2398:	41 8b 44 24 0c       	mov    0xc(%r12),%eax
    239d:	85 c0                	test   %eax,%eax
    239f:	7e 08                	jle    23a9 <allocate_segment+0xd9>
    23a1:	83 e8 01             	sub    $0x1,%eax
    23a4:	41 89 44 24 0c       	mov    %eax,0xc(%r12)
    23a9:	48 83 c4 08          	add    $0x8,%rsp
    23ad:	31 c0                	xor    %eax,%eax
    23af:	5b                   	pop    %rbx
    23b0:	5d                   	pop    %rbp
    23b1:	41 5c                	pop    %r12
    23b3:	41 5d                	pop    %r13
    23b5:	c3                   	retq   
    23b6:	66 2e 0f 1f 84 00 00 	nopw   %cs:0x0(%rax,%rax,1)
    23bd:	00 00 00 
    23c0:	31 c0                	xor    %eax,%eax
    23c2:	c3                   	retq   
    23c3:	0f 1f 00             	nopl   (%rax)
    23c6:	66 2e 0f 1f 84 00 00 	nopw   %cs:0x0(%rax,%rax,1)
    23cd:	00 00 00 

00000000000023d0 <allocate_page>:
    23d0:	48 83 ec 08          	sub    $0x8,%rsp
    23d4:	45 31 c9             	xor    %r9d,%r9d
    23d7:	45 31 c0             	xor    %r8d,%r8d
    23da:	ba 03 00 00 00       	mov    $0x3,%edx
    23df:	31 ff                	xor    %edi,%edi
    23e1:	b9 22 00 00 00       	mov    $0x22,%ecx
    23e6:	be 00 10 00 00       	mov    $0x1000,%esi
    23eb:	e8 c0 f3 ff ff       	callq  17b0 <mmap@plt>
    23f0:	ba 00 00 00 00       	mov    $0x0,%edx
    23f5:	48 83 f8 ff          	cmp    $0xffffffffffffffff,%rax
    23f9:	48 0f 44 c2          	cmove  %rdx,%rax
    23fd:	48 83 c4 08          	add    $0x8,%rsp
    2401:	c3                   	retq   
    2402:	0f 1f 40 00          	nopl   0x0(%rax)
    2406:	66 2e 0f 1f 84 00 00 	nopw   %cs:0x0(%rax,%rax,1)
    240d:	00 00 00 

0000000000002410 <allocate_mdt>:
    2410:	48 83 ec 08          	sub    $0x8,%rsp
    2414:	45 31 c9             	xor    %r9d,%r9d
    2417:	45 31 c0             	xor    %r8d,%r8d
    241a:	ba 03 00 00 00       	mov    $0x3,%edx
    241f:	31 ff                	xor    %edi,%edi
    2421:	b9 22 00 00 00       	mov    $0x22,%ecx
    2426:	be 00 00 05 00       	mov    $0x50000,%esi
    242b:	e8 80 f3 ff ff       	callq  17b0 <mmap@plt>
    2430:	ba 00 00 00 00       	mov    $0x0,%edx
    2435:	48 83 f8 ff          	cmp    $0xffffffffffffffff,%rax
    2439:	48 0f 44 c2          	cmove  %rdx,%rax
    243d:	48 83 c4 08          	add    $0x8,%rsp
    2441:	c3                   	retq   
    2442:	0f 1f 40 00          	nopl   0x0(%rax)
    2446:	66 2e 0f 1f 84 00 00 	nopw   %cs:0x0(%rax,%rax,1)
    244d:	00 00 00 

0000000000002450 <get_new_mdt_entry>:
    2450:	85 ff                	test   %edi,%edi
    2452:	78 3c                	js     2490 <get_new_mdt_entry+0x40>
    2454:	39 3d b6 ab 21 00    	cmp    %edi,0x21abb6(%rip)        # 21d010 <handled_sobjs>
    245a:	7e 34                	jle    2490 <get_new_mdt_entry+0x40>
    245c:	48 63 ff             	movslq %edi,%rdi
    245f:	48 8d 05 1a 2d 32 00 	lea    0x322d1a(%rip),%rax        # 325180 <maps>
    2466:	48 8d 14 ff          	lea    (%rdi,%rdi,8),%rdx
    246a:	48 8d 14 d0          	lea    (%rax,%rdx,8),%rdx
    246e:	8b 42 0c             	mov    0xc(%rdx),%eax
    2471:	3b 42 08             	cmp    0x8(%rdx),%eax
    2474:	7d 1a                	jge    2490 <get_new_mdt_entry+0x40>
    2476:	83 c0 01             	add    $0x1,%eax
    2479:	89 42 0c             	mov    %eax,0xc(%rdx)
    247c:	48 8b 12             	mov    (%rdx),%rdx
    247f:	48 98                	cltq   
    2481:	48 c1 e0 04          	shl    $0x4,%rax
    2485:	48 8d 44 02 f0       	lea    -0x10(%rdx,%rax,1),%rax
    248a:	c3                   	retq   
    248b:	0f 1f 44 00 00       	nopl   0x0(%rax,%rax,1)
    2490:	31 c0                	xor    %eax,%eax
    2492:	c3                   	retq   
    2493:	0f 1f 00             	nopl   (%rax)
    2496:	66 2e 0f 1f 84 00 00 	nopw   %cs:0x0(%rax,%rax,1)
    249d:	00 00 00 

00000000000024a0 <release_mdt_entry>:
    24a0:	85 ff                	test   %edi,%edi
    24a2:	78 2c                	js     24d0 <release_mdt_entry+0x30>
    24a4:	39 3d 66 ab 21 00    	cmp    %edi,0x21ab66(%rip)        # 21d010 <handled_sobjs>
    24aa:	7e 24                	jle    24d0 <release_mdt_entry+0x30>
    24ac:	48 63 ff             	movslq %edi,%rdi
    24af:	48 8d 05 ca 2c 32 00 	lea    0x322cca(%rip),%rax        # 325180 <maps>
    24b6:	48 8d 14 ff          	lea    (%rdi,%rdi,8),%rdx
    24ba:	48 8d 14 d0          	lea    (%rax,%rdx,8),%rdx
    24be:	8b 42 0c             	mov    0xc(%rdx),%eax
    24c1:	85 c0                	test   %eax,%eax
    24c3:	7e 0b                	jle    24d0 <release_mdt_entry+0x30>
    24c5:	83 e8 01             	sub    $0x1,%eax
    24c8:	89 42 0c             	mov    %eax,0xc(%rdx)
    24cb:	31 c0                	xor    %eax,%eax
    24cd:	c3                   	retq   
    24ce:	66 90                	xchg   %ax,%ax
    24d0:	b8 a0 ff ff ff       	mov    $0xffffffa0,%eax
    24d5:	c3                   	retq   
    24d6:	66 2e 0f 1f 84 00 00 	nopw   %cs:0x0(%rax,%rax,1)
    24dd:	00 00 00 

00000000000024e0 <pool_get_memory>:
    24e0:	3b 3d 2a ab 21 00    	cmp    0x21ab2a(%rip),%edi        # 21d010 <handled_sobjs>
    24e6:	0f 8d e4 00 00 00    	jge    25d0 <pool_get_memory+0xf0>
    24ec:	48 85 f6             	test   %rsi,%rsi
    24ef:	0f 84 db 00 00 00    	je     25d0 <pool_get_memory+0xf0>
    24f5:	41 55                	push   %r13
    24f7:	41 54                	push   %r12
    24f9:	55                   	push   %rbp
    24fa:	48 89 f5             	mov    %rsi,%rbp
    24fd:	81 e6 ff 0f 00 00    	and    $0xfff,%esi
    2503:	53                   	push   %rbx
    2504:	48 c1 ed 0c          	shr    $0xc,%rbp
    2508:	48 83 ec 08          	sub    $0x8,%rsp
    250c:	48 83 fe 01          	cmp    $0x1,%rsi
    2510:	83 dd ff             	sbb    $0xffffffff,%ebp
    2513:	81 fd 00 40 00 00    	cmp    $0x4000,%ebp
    2519:	0f 8f 9a 00 00 00    	jg     25b9 <pool_get_memory+0xd9>
    251f:	89 fb                	mov    %edi,%ebx
    2521:	85 ff                	test   %edi,%edi
    2523:	0f 88 90 00 00 00    	js     25b9 <pool_get_memory+0xd9>
    2529:	48 63 c7             	movslq %edi,%rax
    252c:	48 8d 14 c0          	lea    (%rax,%rax,8),%rdx
    2530:	48 8d 05 49 2c 32 00 	lea    0x322c49(%rip),%rax        # 325180 <maps>
    2537:	4c 8d 24 d0          	lea    (%rax,%rdx,8),%r12
    253b:	41 8b 44 24 0c       	mov    0xc(%r12),%eax
    2540:	41 3b 44 24 08       	cmp    0x8(%r12),%eax
    2545:	7d 72                	jge    25b9 <pool_get_memory+0xd9>
    2547:	83 c0 01             	add    $0x1,%eax
    254a:	49 8b 14 24          	mov    (%r12),%rdx
    254e:	41 89 44 24 0c       	mov    %eax,0xc(%r12)
    2553:	48 98                	cltq   
    2555:	48 c1 e0 04          	shl    $0x4,%rax
    2559:	4c 8d 6c 02 f0       	lea    -0x10(%rdx,%rax,1),%r13
    255e:	4d 85 ed             	test   %r13,%r13
    2561:	74 56                	je     25b9 <pool_get_memory+0xd9>
    2563:	89 ee                	mov    %ebp,%esi
    2565:	45 31 c9             	xor    %r9d,%r9d
    2568:	45 31 c0             	xor    %r8d,%r8d
    256b:	31 ff                	xor    %edi,%edi
    256d:	c1 e6 0c             	shl    $0xc,%esi
    2570:	b9 22 00 00 00       	mov    $0x22,%ecx
    2575:	ba 03 00 00 00       	mov    $0x3,%edx
    257a:	48 63 f6             	movslq %esi,%rsi
    257d:	e8 2e f2 ff ff       	callq  17b0 <mmap@plt>
    2582:	48 83 f8 ff          	cmp    $0xffffffffffffffff,%rax
    2586:	74 18                	je     25a0 <pool_get_memory+0xc0>
    2588:	49 89 45 00          	mov    %rax,0x0(%r13)
    258c:	41 89 6d 08          	mov    %ebp,0x8(%r13)
    2590:	48 83 c4 08          	add    $0x8,%rsp
    2594:	5b                   	pop    %rbx
    2595:	5d                   	pop    %rbp
    2596:	41 5c                	pop    %r12
    2598:	41 5d                	pop    %r13
    259a:	c3                   	retq   
    259b:	0f 1f 44 00 00       	nopl   0x0(%rax,%rax,1)
    25a0:	3b 1d 6a aa 21 00    	cmp    0x21aa6a(%rip),%ebx        # 21d010 <handled_sobjs>
    25a6:	7d 11                	jge    25b9 <pool_get_memory+0xd9>
    25a8:	41 8b 44 24 0c       	mov    0xc(%r12),%eax
    25ad:	85 c0                	test   %eax,%eax
    25af:	7e 08                	jle    25b9 <pool_get_memory+0xd9>
    25b1:	83 e8 01             	sub    $0x1,%eax
    25b4:	41 89 44 24 0c       	mov    %eax,0xc(%r12)
    25b9:	48 83 c4 08          	add    $0x8,%rsp
    25bd:	31 c0                	xor    %eax,%eax
    25bf:	5b                   	pop    %rbx
    25c0:	5d                   	pop    %rbp
    25c1:	41 5c                	pop    %r12
    25c3:	41 5d                	pop    %r13
    25c5:	c3                   	retq   
    25c6:	66 2e 0f 1f 84 00 00 	nopw   %cs:0x0(%rax,%rax,1)
    25cd:	00 00 00 
    25d0:	31 c0                	xor    %eax,%eax
    25d2:	c3                   	retq   
    25d3:	0f 1f 00             	nopl   (%rax)
    25d6:	66 2e 0f 1f 84 00 00 	nopw   %cs:0x0(%rax,%rax,1)
    25dd:	00 00 00 

00000000000025e0 <allocator_init>:
    25e0:	81 ff 00 08 00 00    	cmp    $0x800,%edi
    25e6:	0f 87 88 00 00 00    	ja     2674 <allocator_init+0x94>
    25ec:	89 3d 1e aa 21 00    	mov    %edi,0x21aa1e(%rip)        # 21d010 <handled_sobjs>
    25f2:	85 ff                	test   %edi,%edi
    25f4:	74 7b                	je     2671 <allocator_init+0x91>
    25f6:	55                   	push   %rbp
    25f7:	8d 47 ff             	lea    -0x1(%rdi),%eax
    25fa:	53                   	push   %rbx
    25fb:	48 8d 1d 7e 2b 32 00 	lea    0x322b7e(%rip),%rbx        # 325180 <maps>
    2602:	48 8d 14 c0          	lea    (%rax,%rax,8),%rdx
    2606:	48 8d 43 48          	lea    0x48(%rbx),%rax
    260a:	48 8d 2c d0          	lea    (%rax,%rdx,8),%rbp
    260e:	48 83 ec 08          	sub    $0x8,%rsp
    2612:	eb 1e                	jmp    2632 <allocator_init+0x52>
    2614:	0f 1f 40 00          	nopl   0x0(%rax)
    2618:	48 89 03             	mov    %rax,(%rbx)
    261b:	48 83 c3 48          	add    $0x48,%rbx
    261f:	c7 43 c4 00 00 00 00 	movl   $0x0,-0x3c(%rbx)
    2626:	c7 43 c0 00 50 00 00 	movl   $0x5000,-0x40(%rbx)
    262d:	48 39 eb             	cmp    %rbp,%rbx
    2630:	74 36                	je     2668 <allocator_init+0x88>
    2632:	ba 03 00 00 00       	mov    $0x3,%edx
    2637:	45 31 c9             	xor    %r9d,%r9d
    263a:	45 31 c0             	xor    %r8d,%r8d
    263d:	b9 22 00 00 00       	mov    $0x22,%ecx
    2642:	be 00 00 05 00       	mov    $0x50000,%esi
    2647:	31 ff                	xor    %edi,%edi
    2649:	e8 62 f1 ff ff       	callq  17b0 <mmap@plt>
    264e:	48 8d 50 ff          	lea    -0x1(%rax),%rdx
    2652:	48 83 fa fd          	cmp    $0xfffffffffffffffd,%rdx
    2656:	76 c0                	jbe    2618 <allocator_init+0x38>
    2658:	48 83 c4 08          	add    $0x8,%rsp
    265c:	b8 9e ff ff ff       	mov    $0xffffff9e,%eax
    2661:	5b                   	pop    %rbx
    2662:	5d                   	pop    %rbp
    2663:	c3                   	retq   
    2664:	0f 1f 40 00          	nopl   0x0(%rax)
    2668:	48 83 c4 08          	add    $0x8,%rsp
    266c:	31 c0                	xor    %eax,%eax
    266e:	5b                   	pop    %rbx
    266f:	5d                   	pop    %rbp
    2670:	c3                   	retq   
    2671:	31 c0                	xor    %eax,%eax
    2673:	c3                   	retq   
    2674:	b8 9d ff ff ff       	mov    $0xffffff9d,%eax
    2679:	c3                   	retq   
    267a:	66 0f 1f 44 00 00    	nopw   0x0(%rax,%rax,1)

0000000000002680 <dymelor_init>:
    2680:	48 83 ec 08          	sub    $0x8,%rsp
    2684:	e8 57 ff ff ff       	callq  25e0 <allocator_init>
    2689:	48 83 c4 08          	add    $0x8,%rsp
    268d:	e9 9e 0b 00 00       	jmpq   3230 <recoverable_init>
    2692:	0f 1f 40 00          	nopl   0x0(%rax)
    2696:	66 2e 0f 1f 84 00 00 	nopw   %cs:0x0(%rax,%rax,1)
    269d:	00 00 00 

00000000000026a0 <dymelor_fini>:
    26a0:	e9 3b 0c 00 00       	jmpq   32e0 <recoverable_fini>
    26a5:	90                   	nop
    26a6:	66 2e 0f 1f 84 00 00 	nopw   %cs:0x0(%rax,%rax,1)
    26ad:	00 00 00 

00000000000026b0 <malloc_state_init>:
    26b0:	55                   	push   %rbp
    26b1:	48 89 f5             	mov    %rsi,%rbp
    26b4:	53                   	push   %rbx
    26b5:	89 fb                	mov    %edi,%ebx
    26b7:	bf 00 b0 00 00       	mov    $0xb000,%edi
    26bc:	48 83 ec 08          	sub    $0x8,%rsp
    26c0:	66 0f 6f 05 28 29 01 	movdqa 0x12928(%rip),%xmm0        # 14ff0 <__PRETTY_FUNCTION__.5886+0x810>
    26c7:	00 
    26c8:	c6 06 00             	movb   $0x0,(%rsi)
    26cb:	f2 0f 10 0d fd 28 01 	movsd  0x128fd(%rip),%xmm1        # 14fd0 <__PRETTY_FUNCTION__.5886+0x7f0>
    26d2:	00 
    26d3:	0f 11 46 28          	movups %xmm0,0x28(%rsi)
    26d7:	66 0f ef c0          	pxor   %xmm0,%xmm0
    26db:	0f 11 46 08          	movups %xmm0,0x8(%rsi)
    26df:	0f 11 46 18          	movups %xmm0,0x18(%rsi)
    26e3:	f2 0f 11 4e 38       	movsd  %xmm1,0x38(%rsi)
    26e8:	e8 63 35 00 00       	callq  5c50 <rsalloc>
    26ed:	48 8b 15 dc 28 01 00 	mov    0x128dc(%rip),%rdx        # 14fd0 <__PRETTY_FUNCTION__.5886+0x7f0>
    26f4:	48 85 c0             	test   %rax,%rax
    26f7:	48 89 45 40          	mov    %rax,0x40(%rbp)
    26fb:	0f 84 3f 04 00 00    	je     2b40 <malloc_state_init+0x490>
    2701:	66 48 0f 6e ca       	movq   %rdx,%xmm1
    2706:	66 0f 6f 15 f2 28 01 	movdqa 0x128f2(%rip),%xmm2        # 15000 <__PRETTY_FUNCTION__.5886+0x820>
    270d:	00 
    270e:	66 0f ef c0          	pxor   %xmm0,%xmm0
    2712:	88 18                	mov    %bl,(%rax)
    2714:	88 58 58             	mov    %bl,0x58(%rax)
    2717:	88 98 b0 00 00 00    	mov    %bl,0xb0(%rax)
    271d:	88 98 08 01 00 00    	mov    %bl,0x108(%rax)
    2723:	48 c7 40 08 82 00 00 	movq   $0x82,0x8(%rax)
    272a:	00 
    272b:	48 c7 40 20 00 00 00 	movq   $0x0,0x20(%rax)
    2732:	00 
    2733:	48 c7 40 50 ff ff ff 	movq   $0xffffffffffffffff,0x50(%rax)
    273a:	ff 
    273b:	48 c7 40 60 02 01 00 	movq   $0x102,0x60(%rax)
    2742:	00 
    2743:	48 c7 40 78 01 00 00 	movq   $0x1,0x78(%rax)
    274a:	00 
    274b:	48 c7 80 a8 00 00 00 	movq   $0xffffffffffffffff,0xa8(%rax)
    2752:	ff ff ff ff 
    2756:	48 c7 80 b8 00 00 00 	movq   $0x202,0xb8(%rax)
    275d:	02 02 00 00 
    2761:	48 c7 80 d0 00 00 00 	movq   $0x2,0xd0(%rax)
    2768:	02 00 00 00 
    276c:	48 c7 80 00 01 00 00 	movq   $0xffffffffffffffff,0x100(%rax)
    2773:	ff ff ff ff 
    2777:	48 c7 80 10 01 00 00 	movq   $0x402,0x110(%rax)
    277e:	02 04 00 00 
    2782:	48 c7 80 28 01 00 00 	movq   $0x3,0x128(%rax)
    2789:	03 00 00 00 
    278d:	0f 11 50 10          	movups %xmm2,0x10(%rax)
    2791:	f2 0f 11 48 28       	movsd  %xmm1,0x28(%rax)
    2796:	0f 11 40 30          	movups %xmm0,0x30(%rax)
    279a:	0f 11 40 40          	movups %xmm0,0x40(%rax)
    279e:	0f 11 50 68          	movups %xmm2,0x68(%rax)
    27a2:	f2 0f 11 88 80 00 00 	movsd  %xmm1,0x80(%rax)
    27a9:	00 
    27aa:	0f 11 80 88 00 00 00 	movups %xmm0,0x88(%rax)
    27b1:	0f 11 80 98 00 00 00 	movups %xmm0,0x98(%rax)
    27b8:	0f 11 90 c0 00 00 00 	movups %xmm2,0xc0(%rax)
    27bf:	f2 0f 11 88 d8 00 00 	movsd  %xmm1,0xd8(%rax)
    27c6:	00 
    27c7:	0f 11 80 e0 00 00 00 	movups %xmm0,0xe0(%rax)
    27ce:	0f 11 80 f0 00 00 00 	movups %xmm0,0xf0(%rax)
    27d5:	0f 11 90 18 01 00 00 	movups %xmm2,0x118(%rax)
    27dc:	f2 0f 11 88 30 01 00 	movsd  %xmm1,0x130(%rax)
    27e3:	00 
    27e4:	0f 11 80 38 01 00 00 	movups %xmm0,0x138(%rax)
    27eb:	0f 11 80 48 01 00 00 	movups %xmm0,0x148(%rax)
    27f2:	48 c7 80 58 01 00 00 	movq   $0xffffffffffffffff,0x158(%rax)
    27f9:	ff ff ff ff 
    27fd:	88 98 60 01 00 00    	mov    %bl,0x160(%rax)
    2803:	88 98 b8 01 00 00    	mov    %bl,0x1b8(%rax)
    2809:	88 98 10 02 00 00    	mov    %bl,0x210(%rax)
    280f:	88 98 68 02 00 00    	mov    %bl,0x268(%rax)
    2815:	48 c7 80 68 01 00 00 	movq   $0x802,0x168(%rax)
    281c:	02 08 00 00 
    2820:	48 c7 80 80 01 00 00 	movq   $0x4,0x180(%rax)
    2827:	04 00 00 00 
    282b:	48 c7 80 b0 01 00 00 	movq   $0xffffffffffffffff,0x1b0(%rax)
    2832:	ff ff ff ff 
    2836:	48 c7 80 c0 01 00 00 	movq   $0x1002,0x1c0(%rax)
    283d:	02 10 00 00 
    2841:	48 c7 80 d8 01 00 00 	movq   $0x5,0x1d8(%rax)
    2848:	05 00 00 00 
    284c:	48 c7 80 08 02 00 00 	movq   $0xffffffffffffffff,0x208(%rax)
    2853:	ff ff ff ff 
    2857:	48 c7 80 18 02 00 00 	movq   $0x2002,0x218(%rax)
    285e:	02 20 00 00 
    2862:	48 c7 80 30 02 00 00 	movq   $0x6,0x230(%rax)
    2869:	06 00 00 00 
    286d:	48 c7 80 60 02 00 00 	movq   $0xffffffffffffffff,0x260(%rax)
    2874:	ff ff ff ff 
    2878:	48 c7 80 70 02 00 00 	movq   $0x4002,0x270(%rax)
    287f:	02 40 00 00 
    2883:	48 c7 80 88 02 00 00 	movq   $0x7,0x288(%rax)
    288a:	07 00 00 00 
    288e:	48 c7 80 b8 02 00 00 	movq   $0xffffffffffffffff,0x2b8(%rax)
    2895:	ff ff ff ff 
    2899:	0f 11 90 70 01 00 00 	movups %xmm2,0x170(%rax)
    28a0:	f2 0f 11 88 88 01 00 	movsd  %xmm1,0x188(%rax)
    28a7:	00 
    28a8:	0f 11 80 90 01 00 00 	movups %xmm0,0x190(%rax)
    28af:	0f 11 80 a0 01 00 00 	movups %xmm0,0x1a0(%rax)
    28b6:	0f 11 90 c8 01 00 00 	movups %xmm2,0x1c8(%rax)
    28bd:	f2 0f 11 88 e0 01 00 	movsd  %xmm1,0x1e0(%rax)
    28c4:	00 
    28c5:	0f 11 80 e8 01 00 00 	movups %xmm0,0x1e8(%rax)
    28cc:	0f 11 80 f8 01 00 00 	movups %xmm0,0x1f8(%rax)
    28d3:	0f 11 90 20 02 00 00 	movups %xmm2,0x220(%rax)
    28da:	f2 0f 11 88 38 02 00 	movsd  %xmm1,0x238(%rax)
    28e1:	00 
    28e2:	0f 11 80 40 02 00 00 	movups %xmm0,0x240(%rax)
    28e9:	0f 11 80 50 02 00 00 	movups %xmm0,0x250(%rax)
    28f0:	0f 11 90 78 02 00 00 	movups %xmm2,0x278(%rax)
    28f7:	f2 0f 11 88 90 02 00 	movsd  %xmm1,0x290(%rax)
    28fe:	00 
    28ff:	0f 11 80 98 02 00 00 	movups %xmm0,0x298(%rax)
    2906:	0f 11 80 a8 02 00 00 	movups %xmm0,0x2a8(%rax)
    290d:	88 98 c0 02 00 00    	mov    %bl,0x2c0(%rax)
    2913:	88 98 18 03 00 00    	mov    %bl,0x318(%rax)
    2919:	88 98 70 03 00 00    	mov    %bl,0x370(%rax)
    291f:	88 98 c8 03 00 00    	mov    %bl,0x3c8(%rax)
    2925:	88 98 20 04 00 00    	mov    %bl,0x420(%rax)
    292b:	48 c7 80 c8 02 00 00 	movq   $0x8002,0x2c8(%rax)
    2932:	02 80 00 00 
    2936:	48 c7 80 e0 02 00 00 	movq   $0x8,0x2e0(%rax)
    293d:	08 00 00 00 
    2941:	48 c7 80 10 03 00 00 	movq   $0xffffffffffffffff,0x310(%rax)
    2948:	ff ff ff ff 
    294c:	48 c7 80 20 03 00 00 	movq   $0x10002,0x320(%rax)
    2953:	02 00 01 00 
    2957:	48 c7 80 38 03 00 00 	movq   $0x9,0x338(%rax)
    295e:	09 00 00 00 
    2962:	48 c7 80 68 03 00 00 	movq   $0xffffffffffffffff,0x368(%rax)
    2969:	ff ff ff ff 
    296d:	48 c7 80 78 03 00 00 	movq   $0x20002,0x378(%rax)
    2974:	02 00 02 00 
    2978:	48 c7 80 90 03 00 00 	movq   $0xa,0x390(%rax)
    297f:	0a 00 00 00 
    2983:	48 c7 80 c0 03 00 00 	movq   $0xffffffffffffffff,0x3c0(%rax)
    298a:	ff ff ff ff 
    298e:	48 c7 80 d0 03 00 00 	movq   $0x40002,0x3d0(%rax)
    2995:	02 00 04 00 
    2999:	48 c7 80 e8 03 00 00 	movq   $0xb,0x3e8(%rax)
    29a0:	0b 00 00 00 
    29a4:	48 c7 80 18 04 00 00 	movq   $0xffffffffffffffff,0x418(%rax)
    29ab:	ff ff ff ff 
    29af:	0f 11 90 d0 02 00 00 	movups %xmm2,0x2d0(%rax)
    29b6:	f2 0f 11 88 e8 02 00 	movsd  %xmm1,0x2e8(%rax)
    29bd:	00 
    29be:	0f 11 80 f0 02 00 00 	movups %xmm0,0x2f0(%rax)
    29c5:	0f 11 80 00 03 00 00 	movups %xmm0,0x300(%rax)
    29cc:	0f 11 90 28 03 00 00 	movups %xmm2,0x328(%rax)
    29d3:	f2 0f 11 88 40 03 00 	movsd  %xmm1,0x340(%rax)
    29da:	00 
    29db:	0f 11 80 48 03 00 00 	movups %xmm0,0x348(%rax)
    29e2:	0f 11 80 58 03 00 00 	movups %xmm0,0x358(%rax)
    29e9:	0f 11 90 80 03 00 00 	movups %xmm2,0x380(%rax)
    29f0:	f2 0f 11 88 98 03 00 	movsd  %xmm1,0x398(%rax)
    29f7:	00 
    29f8:	0f 11 80 a0 03 00 00 	movups %xmm0,0x3a0(%rax)
    29ff:	0f 11 80 b0 03 00 00 	movups %xmm0,0x3b0(%rax)
    2a06:	0f 11 90 d8 03 00 00 	movups %xmm2,0x3d8(%rax)
    2a0d:	f2 0f 11 88 f0 03 00 	movsd  %xmm1,0x3f0(%rax)
    2a14:	00 
    2a15:	0f 11 80 f8 03 00 00 	movups %xmm0,0x3f8(%rax)
    2a1c:	0f 11 80 08 04 00 00 	movups %xmm0,0x408(%rax)
    2a23:	48 c7 80 28 04 00 00 	movq   $0x80002,0x428(%rax)
    2a2a:	02 00 08 00 
    2a2e:	48 c7 80 40 04 00 00 	movq   $0xc,0x440(%rax)
    2a35:	0c 00 00 00 
    2a39:	48 c7 80 70 04 00 00 	movq   $0xffffffffffffffff,0x470(%rax)
    2a40:	ff ff ff ff 
    2a44:	88 98 78 04 00 00    	mov    %bl,0x478(%rax)
    2a4a:	48 c7 80 80 04 00 00 	movq   $0x100002,0x480(%rax)
    2a51:	02 00 10 00 
    2a55:	48 c7 80 98 04 00 00 	movq   $0xd,0x498(%rax)
    2a5c:	0d 00 00 00 
    2a60:	48 c7 80 c8 04 00 00 	movq   $0xffffffffffffffff,0x4c8(%rax)
    2a67:	ff ff ff ff 
    2a6b:	88 98 d0 04 00 00    	mov    %bl,0x4d0(%rax)
    2a71:	c7 80 f4 04 00 00 00 	movl   $0x0,0x4f4(%rax)
    2a78:	00 00 00 
    2a7b:	48 c7 80 20 05 00 00 	movq   $0xffffffffffffffff,0x520(%rax)
    2a82:	ff ff ff ff 
    2a86:	48 c7 80 d8 04 00 00 	movq   $0x200002,0x4d8(%rax)
    2a8d:	02 00 20 00 
    2a91:	c7 80 f0 04 00 00 0e 	movl   $0xe,0x4f0(%rax)
    2a98:	00 00 00 
    2a9b:	88 98 28 05 00 00    	mov    %bl,0x528(%rax)
    2aa1:	48 c7 80 30 05 00 00 	movq   $0x400002,0x530(%rax)
    2aa8:	02 00 40 00 
    2aac:	48 c7 80 48 05 00 00 	movq   $0xf,0x548(%rax)
    2ab3:	0f 00 00 00 
    2ab7:	48 c7 80 78 05 00 00 	movq   $0xffffffffffffffff,0x578(%rax)
    2abe:	ff ff ff ff 
    2ac2:	0f 11 90 30 04 00 00 	movups %xmm2,0x430(%rax)
    2ac9:	f2 0f 11 88 48 04 00 	movsd  %xmm1,0x448(%rax)
    2ad0:	00 
    2ad1:	0f 11 80 50 04 00 00 	movups %xmm0,0x450(%rax)
    2ad8:	0f 11 80 60 04 00 00 	movups %xmm0,0x460(%rax)
    2adf:	0f 11 90 88 04 00 00 	movups %xmm2,0x488(%rax)
    2ae6:	f2 0f 11 88 a0 04 00 	movsd  %xmm1,0x4a0(%rax)
    2aed:	00 
    2aee:	0f 11 80 a8 04 00 00 	movups %xmm0,0x4a8(%rax)
    2af5:	0f 11 80 b8 04 00 00 	movups %xmm0,0x4b8(%rax)
    2afc:	0f 11 90 e0 04 00 00 	movups %xmm2,0x4e0(%rax)
    2b03:	f2 0f 11 88 f8 04 00 	movsd  %xmm1,0x4f8(%rax)
    2b0a:	00 
    2b0b:	0f 11 80 00 05 00 00 	movups %xmm0,0x500(%rax)
    2b12:	0f 11 80 10 05 00 00 	movups %xmm0,0x510(%rax)
    2b19:	0f 11 90 38 05 00 00 	movups %xmm2,0x538(%rax)
    2b20:	f2 0f 11 88 50 05 00 	movsd  %xmm1,0x550(%rax)
    2b27:	00 
    2b28:	0f 11 80 58 05 00 00 	movups %xmm0,0x558(%rax)
    2b2f:	0f 11 80 68 05 00 00 	movups %xmm0,0x568(%rax)
    2b36:	48 83 c4 08          	add    $0x8,%rsp
    2b3a:	5b                   	pop    %rbx
    2b3b:	5d                   	pop    %rbp
    2b3c:	c3                   	retq   
    2b3d:	0f 1f 00             	nopl   (%rax)
    2b40:	b9 84 00 00 00       	mov    $0x84,%ecx
    2b45:	48 8d 15 f6 1c 01 00 	lea    0x11cf6(%rip),%rdx        # 14842 <__PRETTY_FUNCTION__.5886+0x62>
    2b4c:	bf 01 00 00 00       	mov    $0x1,%edi
    2b51:	48 8d 35 e8 1f 01 00 	lea    0x11fe8(%rip),%rsi        # 14b40 <__PRETTY_FUNCTION__.5886+0x360>
    2b58:	e8 b3 47 00 00       	callq  7310 <rootsim_error>
    2b5d:	48 8b 0d 6c 24 01 00 	mov    0x1246c(%rip),%rcx        # 14fd0 <__PRETTY_FUNCTION__.5886+0x7f0>
    2b64:	48 8b 45 40          	mov    0x40(%rbp),%rax
    2b68:	66 48 0f 6e c9       	movq   %rcx,%xmm1
    2b6d:	e9 94 fb ff ff       	jmpq   2706 <malloc_state_init+0x56>
    2b72:	0f 1f 40 00          	nopl   0x0(%rax)
    2b76:	66 2e 0f 1f 84 00 00 	nopw   %cs:0x0(%rax,%rax,1)
    2b7d:	00 00 00 

0000000000002b80 <do_malloc>:
    2b80:	48 83 c2 07          	add    $0x7,%rdx
    2b84:	41 57                	push   %r15
    2b86:	b9 40 00 00 00       	mov    $0x40,%ecx
    2b8b:	b8 01 00 00 00       	mov    $0x1,%eax
    2b90:	48 0f bd d2          	bsr    %rdx,%rdx
    2b94:	41 56                	push   %r14
    2b96:	48 83 f2 3f          	xor    $0x3f,%rdx
    2b9a:	41 55                	push   %r13
    2b9c:	41 54                	push   %r12
    2b9e:	29 d1                	sub    %edx,%ecx
    2ba0:	41 bc 80 00 00 00    	mov    $0x80,%r12d
    2ba6:	55                   	push   %rbp
    2ba7:	48 d3 e0             	shl    %cl,%rax
    2baa:	53                   	push   %rbx
    2bab:	48 83 ec 18          	sub    $0x18,%rsp
    2baf:	48 3d 80 00 00 00    	cmp    $0x80,%rax
    2bb5:	4c 0f 43 e0          	cmovae %rax,%r12
    2bb9:	48 3d 00 00 40 00    	cmp    $0x400000,%rax
    2bbf:	0f 87 8b 03 00 00    	ja     2f50 <do_malloc+0x3d0>
    2bc5:	48 89 f5             	mov    %rsi,%rbp
    2bc8:	4d 85 e4             	test   %r12,%r12
    2bcb:	0f 88 57 01 00 00    	js     2d28 <do_malloc+0x1a8>
    2bd1:	66 0f ef c0          	pxor   %xmm0,%xmm0
    2bd5:	f2 49 0f 2a c4       	cvtsi2sd %r12,%xmm0
    2bda:	e8 31 ec ff ff       	callq  1810 <log2@plt>
    2bdf:	48 8b 75 40          	mov    0x40(%rbp),%rsi
    2be3:	f2 0f 2c c0          	cvttsd2si %xmm0,%eax
    2be7:	83 e8 07             	sub    $0x7,%eax
    2bea:	48 98                	cltq   
    2bec:	48 8d 14 80          	lea    (%rax,%rax,4),%rdx
    2bf0:	48 8d 04 50          	lea    (%rax,%rdx,2),%rax
    2bf4:	48 8d 1c c6          	lea    (%rsi,%rax,8),%rbx
    2bf8:	44 0f b6 3b          	movzbl (%rbx),%r15d
    2bfc:	eb 05                	jmp    2c03 <do_malloc+0x83>
    2bfe:	66 90                	xchg   %ax,%ax
    2c00:	48 89 c3             	mov    %rax,%rbx
    2c03:	8b 53 1c             	mov    0x1c(%rbx),%edx
    2c06:	39 53 10             	cmp    %edx,0x10(%rbx)
    2c09:	0f 85 41 01 00 00    	jne    2d50 <do_malloc+0x1d0>
    2c0f:	48 63 43 54          	movslq 0x54(%rbx),%rax
    2c13:	83 f8 ff             	cmp    $0xffffffff,%eax
    2c16:	74 11                	je     2c29 <do_malloc+0xa9>
    2c18:	48 8d 0c 80          	lea    (%rax,%rax,4),%rcx
    2c1c:	48 8d 04 48          	lea    (%rax,%rcx,2),%rax
    2c20:	48 8d 04 c6          	lea    (%rsi,%rax,8),%rax
    2c24:	48 85 c0             	test   %rax,%rax
    2c27:	75 d7                	jne    2c00 <do_malloc+0x80>
    2c29:	8b 4d 28             	mov    0x28(%rbp),%ecx
    2c2c:	3b 4d 2c             	cmp    0x2c(%rbp),%ecx
    2c2f:	0f 84 db 02 00 00    	je     2f10 <do_malloc+0x390>
    2c35:	48 63 c1             	movslq %ecx,%rax
    2c38:	66 0f ef c0          	pxor   %xmm0,%xmm0
    2c3c:	01 d2                	add    %edx,%edx
    2c3e:	48 8d 3c 80          	lea    (%rax,%rax,4),%rdi
    2c42:	48 8d 04 78          	lea    (%rax,%rdi,2),%rax
    2c46:	48 8b 3d 83 23 01 00 	mov    0x12383(%rip),%rdi        # 14fd0 <__PRETTY_FUNCTION__.5886+0x7f0>
    2c4d:	48 8d 04 c6          	lea    (%rsi,%rax,8),%rax
    2c51:	4c 89 e6             	mov    %r12,%rsi
    2c54:	48 83 ce 02          	or     $0x2,%rsi
    2c58:	48 c7 40 10 00 00 00 	movq   $0x0,0x10(%rax)
    2c5f:	00 
    2c60:	48 89 70 08          	mov    %rsi,0x8(%rax)
    2c64:	8d 71 01             	lea    0x1(%rcx),%esi
    2c67:	89 48 20             	mov    %ecx,0x20(%rax)
    2c6a:	0f 11 40 30          	movups %xmm0,0x30(%rax)
    2c6e:	0f 11 40 40          	movups %xmm0,0x40(%rax)
    2c72:	44 88 38             	mov    %r15b,(%rax)
    2c75:	c7 40 18 00 00 00 00 	movl   $0x0,0x18(%rax)
    2c7c:	89 50 1c             	mov    %edx,0x1c(%rax)
    2c7f:	c7 40 24 00 00 00 00 	movl   $0x0,0x24(%rax)
    2c86:	48 89 78 28          	mov    %rdi,0x28(%rax)
    2c8a:	c7 40 54 ff ff ff ff 	movl   $0xffffffff,0x54(%rax)
    2c91:	89 75 28             	mov    %esi,0x28(%rbp)
    2c94:	89 4b 54             	mov    %ecx,0x54(%rbx)
    2c97:	8b 4b 20             	mov    0x20(%rbx),%ecx
    2c9a:	48 89 c3             	mov    %rax,%rbx
    2c9d:	89 48 50             	mov    %ecx,0x50(%rax)
    2ca0:	83 fa 1f             	cmp    $0x1f,%edx
    2ca3:	0f 8e 47 02 00 00    	jle    2ef0 <do_malloc+0x370>
    2ca9:	41 89 d5             	mov    %edx,%r13d
    2cac:	41 c1 fd 05          	sar    $0x5,%r13d
    2cb0:	4d 63 ed             	movslq %r13d,%r13
    2cb3:	4a 8d 04 ed 08 00 00 	lea    0x8(,%r13,8),%rax
    2cba:	00 
    2cbb:	4e 8d 34 ad 00 00 00 	lea    0x0(,%r13,4),%r14
    2cc2:	00 
    2cc3:	49 c1 e5 03          	shl    $0x3,%r13
    2cc7:	48 63 d2             	movslq %edx,%rdx
    2cca:	49 0f af d4          	imul   %r12,%rdx
    2cce:	48 01 c2             	add    %rax,%rdx
    2cd1:	48 89 d7             	mov    %rdx,%rdi
    2cd4:	48 89 54 24 08       	mov    %rdx,0x8(%rsp)
    2cd9:	e8 72 2f 00 00       	callq  5c50 <rsalloc>
    2cde:	48 8b 54 24 08       	mov    0x8(%rsp),%rdx
    2ce3:	31 f6                	xor    %esi,%esi
    2ce5:	48 89 43 30          	mov    %rax,0x30(%rbx)
    2ce9:	48 89 c7             	mov    %rax,%rdi
    2cec:	e8 5f eb ff ff       	callq  1850 <memset@plt>
    2cf1:	48 8b 73 30          	mov    0x30(%rbx),%rsi
    2cf5:	48 85 f6             	test   %rsi,%rsi
    2cf8:	0f 84 7f 02 00 00    	je     2f7d <do_malloc+0x3fd>
    2cfe:	48 83 c6 08          	add    $0x8,%rsi
    2d02:	c7 43 14 00 00 00 00 	movl   $0x0,0x14(%rbx)
    2d09:	48 89 5e f8          	mov    %rbx,-0x8(%rsi)
    2d0d:	49 01 f6             	add    %rsi,%r14
    2d10:	49 01 f5             	add    %rsi,%r13
    2d13:	48 89 73 38          	mov    %rsi,0x38(%rbx)
    2d17:	4c 89 73 40          	mov    %r14,0x40(%rbx)
    2d1b:	4c 89 6b 48          	mov    %r13,0x48(%rbx)
    2d1f:	eb 40                	jmp    2d61 <do_malloc+0x1e1>
    2d21:	0f 1f 80 00 00 00 00 	nopl   0x0(%rax)
    2d28:	4c 89 e0             	mov    %r12,%rax
    2d2b:	4c 89 e2             	mov    %r12,%rdx
    2d2e:	66 0f ef c0          	pxor   %xmm0,%xmm0
    2d32:	48 d1 e8             	shr    %rax
    2d35:	83 e2 01             	and    $0x1,%edx
    2d38:	48 09 d0             	or     %rdx,%rax
    2d3b:	f2 48 0f 2a c0       	cvtsi2sd %rax,%xmm0
    2d40:	f2 0f 58 c0          	addsd  %xmm0,%xmm0
    2d44:	e9 91 fe ff ff       	jmpq   2bda <do_malloc+0x5a>
    2d49:	0f 1f 80 00 00 00 00 	nopl   0x0(%rax)
    2d50:	4c 8b 6b 48          	mov    0x48(%rbx),%r13
    2d54:	4d 85 ed             	test   %r13,%r13
    2d57:	0f 84 43 ff ff ff    	je     2ca0 <do_malloc+0x120>
    2d5d:	48 8b 73 38          	mov    0x38(%rbx),%rsi
    2d61:	48 63 7b 18          	movslq 0x18(%rbx),%rdi
    2d65:	41 b9 01 00 00 00    	mov    $0x1,%r9d
    2d6b:	48 89 f8             	mov    %rdi,%rax
    2d6e:	49 0f af fc          	imul   %r12,%rdi
    2d72:	8d 50 1f             	lea    0x1f(%rax),%edx
    2d75:	41 89 c0             	mov    %eax,%r8d
    2d78:	4c 01 ef             	add    %r13,%rdi
    2d7b:	85 c0                	test   %eax,%eax
    2d7d:	0f 49 d0             	cmovns %eax,%edx
    2d80:	41 c1 f8 1f          	sar    $0x1f,%r8d
    2d84:	41 c1 e8 1b          	shr    $0x1b,%r8d
    2d88:	42 8d 0c 00          	lea    (%rax,%r8,1),%ecx
    2d8c:	c1 fa 05             	sar    $0x5,%edx
    2d8f:	44 89 c8             	mov    %r9d,%eax
    2d92:	83 e1 1f             	and    $0x1f,%ecx
    2d95:	48 63 d2             	movslq %edx,%rdx
    2d98:	44 29 c1             	sub    %r8d,%ecx
    2d9b:	d3 e0                	shl    %cl,%eax
    2d9d:	09 04 96             	or     %eax,(%rsi,%rdx,4)
    2da0:	44 8b 43 1c          	mov    0x1c(%rbx),%r8d
    2da4:	44 89 ca             	mov    %r9d,%edx
    2da7:	44 89 c0             	mov    %r8d,%eax
    2daa:	c1 f8 05             	sar    $0x5,%eax
    2dad:	41 83 f8 1f          	cmp    $0x1f,%r8d
    2db1:	0f 4f d0             	cmovg  %eax,%edx
    2db4:	80 3b 00             	cmpb   $0x0,(%rbx)
    2db7:	8b 43 10             	mov    0x10(%rbx),%eax
    2dba:	74 4e                	je     2e0a <do_malloc+0x28a>
    2dbc:	85 c0                	test   %eax,%eax
    2dbe:	75 0f                	jne    2dcf <do_malloc+0x24f>
    2dc0:	48 63 ca             	movslq %edx,%rcx
    2dc3:	83 45 30 01          	addl   $0x1,0x30(%rbp)
    2dc7:	48 c1 e1 02          	shl    $0x2,%rcx
    2dcb:	48 01 4d 18          	add    %rcx,0x18(%rbp)
    2dcf:	8b 4b 24             	mov    0x24(%rbx),%ecx
    2dd2:	85 c9                	test   %ecx,%ecx
    2dd4:	75 0f                	jne    2de5 <do_malloc+0x265>
    2dd6:	48 63 d2             	movslq %edx,%rdx
    2dd9:	83 45 34 01          	addl   $0x1,0x34(%rbp)
    2ddd:	48 c1 e2 02          	shl    $0x2,%rdx
    2de1:	48 01 55 20          	add    %rdx,0x20(%rbp)
    2de5:	48 c7 c2 88 5e ff ff 	mov    $0xffffffffffff5e88,%rdx
    2dec:	c7 43 24 01 00 00 00 	movl   $0x1,0x24(%rbx)
    2df3:	64 f2 0f 10 02       	movsd  %fs:(%rdx),%xmm0
    2df8:	48 8b 53 08          	mov    0x8(%rbx),%rdx
    2dfc:	f2 0f 11 43 28       	movsd  %xmm0,0x28(%rbx)
    2e01:	f6 c2 01             	test   $0x1,%dl
    2e04:	0f 84 96 00 00 00    	je     2ea0 <do_malloc+0x320>
    2e0a:	83 c0 01             	add    $0x1,%eax
    2e0d:	41 b9 01 00 00 00    	mov    $0x1,%r9d
    2e13:	89 43 10             	mov    %eax,0x10(%rbx)
    2e16:	8b 43 18             	mov    0x18(%rbx),%eax
    2e19:	83 c0 01             	add    $0x1,%eax
    2e1c:	89 43 18             	mov    %eax,0x18(%rbx)
    2e1f:	41 39 c0             	cmp    %eax,%r8d
    2e22:	7f 17                	jg     2e3b <do_malloc+0x2bb>
    2e24:	eb 44                	jmp    2e6a <do_malloc+0x2ea>
    2e26:	66 2e 0f 1f 84 00 00 	nopw   %cs:0x0(%rax,%rax,1)
    2e2d:	00 00 00 
    2e30:	83 c0 01             	add    $0x1,%eax
    2e33:	89 43 18             	mov    %eax,0x18(%rbx)
    2e36:	41 39 c0             	cmp    %eax,%r8d
    2e39:	74 2f                	je     2e6a <do_malloc+0x2ea>
    2e3b:	85 c0                	test   %eax,%eax
    2e3d:	8d 50 1f             	lea    0x1f(%rax),%edx
    2e40:	41 89 c2             	mov    %eax,%r10d
    2e43:	45 89 cb             	mov    %r9d,%r11d
    2e46:	0f 49 d0             	cmovns %eax,%edx
    2e49:	41 c1 fa 1f          	sar    $0x1f,%r10d
    2e4d:	41 c1 ea 1b          	shr    $0x1b,%r10d
    2e51:	42 8d 0c 10          	lea    (%rax,%r10,1),%ecx
    2e55:	c1 fa 05             	sar    $0x5,%edx
    2e58:	83 e1 1f             	and    $0x1f,%ecx
    2e5b:	48 63 d2             	movslq %edx,%rdx
    2e5e:	44 29 d1             	sub    %r10d,%ecx
    2e61:	41 d3 e3             	shl    %cl,%r11d
    2e64:	44 85 1c 96          	test   %r11d,(%rsi,%rdx,4)
    2e68:	75 c6                	jne    2e30 <do_malloc+0x2b0>
    2e6a:	4c 89 e2             	mov    %r12,%rdx
    2e6d:	be e8 00 00 00       	mov    $0xe8,%esi
    2e72:	e8 d9 e9 ff ff       	callq  1850 <memset@plt>
    2e77:	48 89 c7             	mov    %rax,%rdi
    2e7a:	48 8b 43 30          	mov    0x30(%rbx),%rax
    2e7e:	4c 8d 67 08          	lea    0x8(%rdi),%r12
    2e82:	48 89 07             	mov    %rax,(%rdi)
    2e85:	48 83 c4 18          	add    $0x18,%rsp
    2e89:	4c 89 e0             	mov    %r12,%rax
    2e8c:	5b                   	pop    %rbx
    2e8d:	5d                   	pop    %rbp
    2e8e:	41 5c                	pop    %r12
    2e90:	41 5d                	pop    %r13
    2e92:	41 5e                	pop    %r14
    2e94:	41 5f                	pop    %r15
    2e96:	c3                   	retq   
    2e97:	66 0f 1f 84 00 00 00 	nopw   0x0(%rax,%rax,1)
    2e9e:	00 00 
    2ea0:	66 0f ef c0          	pxor   %xmm0,%xmm0
    2ea4:	66 0f ef c9          	pxor   %xmm1,%xmm1
    2ea8:	48 8b 4d 08          	mov    0x8(%rbp),%rcx
    2eac:	f2 0f 2a c0          	cvtsi2sd %eax,%xmm0
    2eb0:	f2 41 0f 2a c8       	cvtsi2sd %r8d,%xmm1
    2eb5:	f2 0f 5e c1          	divsd  %xmm1,%xmm0
    2eb9:	66 0f 2f 05 17 21 01 	comisd 0x12117(%rip),%xmm0        # 14fd8 <__PRETTY_FUNCTION__.5886+0x7f8>
    2ec0:	00 
    2ec1:	0f 86 a9 00 00 00    	jbe    2f70 <do_malloc+0x3f0>
    2ec7:	48 83 ca 01          	or     $0x1,%rdx
    2ecb:	45 89 c6             	mov    %r8d,%r14d
    2ece:	48 89 53 08          	mov    %rdx,0x8(%rbx)
    2ed2:	8d 50 ff             	lea    -0x1(%rax),%edx
    2ed5:	41 29 d6             	sub    %edx,%r14d
    2ed8:	49 63 d6             	movslq %r14d,%rdx
    2edb:	49 0f af d4          	imul   %r12,%rdx
    2edf:	48 01 ca             	add    %rcx,%rdx
    2ee2:	48 89 55 08          	mov    %rdx,0x8(%rbp)
    2ee6:	e9 1f ff ff ff       	jmpq   2e0a <do_malloc+0x28a>
    2eeb:	0f 1f 44 00 00       	nopl   0x0(%rax,%rax,1)
    2ef0:	41 bd 08 00 00 00    	mov    $0x8,%r13d
    2ef6:	41 be 04 00 00 00    	mov    $0x4,%r14d
    2efc:	b8 10 00 00 00       	mov    $0x10,%eax
    2f01:	e9 c1 fd ff ff       	jmpq   2cc7 <do_malloc+0x147>
    2f06:	66 2e 0f 1f 84 00 00 	nopw   %cs:0x0(%rax,%rax,1)
    2f0d:	00 00 00 
    2f10:	01 c9                	add    %ecx,%ecx
    2f12:	45 31 e4             	xor    %r12d,%r12d
    2f15:	81 f9 00 02 00 00    	cmp    $0x200,%ecx
    2f1b:	0f 8f 64 ff ff ff    	jg     2e85 <do_malloc+0x305>
    2f21:	89 4d 2c             	mov    %ecx,0x2c(%rbp)
    2f24:	48 8d 35 31 19 01 00 	lea    0x11931(%rip),%rsi        # 1485c <__PRETTY_FUNCTION__.5886+0x7c>
    2f2b:	bf 01 00 00 00       	mov    $0x1,%edi
    2f30:	31 c0                	xor    %eax,%eax
    2f32:	e8 d9 43 00 00       	callq  7310 <rootsim_error>
    2f37:	48 8d 35 92 1c 01 00 	lea    0x11c92(%rip),%rsi        # 14bd0 <__PRETTY_FUNCTION__.5886+0x3f0>
    2f3e:	31 ff                	xor    %edi,%edi
    2f40:	31 c0                	xor    %eax,%eax
    2f42:	e8 c9 43 00 00       	callq  7310 <rootsim_error>
    2f47:	d1 7d 2c             	sarl   0x2c(%rbp)
    2f4a:	e9 36 ff ff ff       	jmpq   2e85 <do_malloc+0x305>
    2f4f:	90                   	nop
    2f50:	4c 89 e2             	mov    %r12,%rdx
    2f53:	b9 00 00 40 00       	mov    $0x400000,%ecx
    2f58:	31 ff                	xor    %edi,%edi
    2f5a:	31 c0                	xor    %eax,%eax
    2f5c:	48 8d 35 05 1c 01 00 	lea    0x11c05(%rip),%rsi        # 14b68 <__PRETTY_FUNCTION__.5886+0x388>
    2f63:	45 31 e4             	xor    %r12d,%r12d
    2f66:	e8 a5 43 00 00       	callq  7310 <rootsim_error>
    2f6b:	e9 15 ff ff ff       	jmpq   2e85 <do_malloc+0x305>
    2f70:	49 8d 14 0c          	lea    (%r12,%rcx,1),%rdx
    2f74:	48 89 55 08          	mov    %rdx,0x8(%rbp)
    2f78:	e9 8d fe ff ff       	jmpq   2e0a <do_malloc+0x28a>
    2f7d:	48 8d 35 e8 18 01 00 	lea    0x118e8(%rip),%rsi        # 1486c <__PRETTY_FUNCTION__.5886+0x8c>
    2f84:	bf 01 00 00 00       	mov    $0x1,%edi
    2f89:	31 c0                	xor    %eax,%eax
    2f8b:	e8 e0 e9 ff ff       	callq  1970 <__printf_chk@plt>
    2f90:	45 84 ff             	test   %r15b,%r15b
    2f93:	bf 01 00 00 00       	mov    $0x1,%edi
    2f98:	48 8d 05 b6 18 01 00 	lea    0x118b6(%rip),%rax        # 14855 <__PRETTY_FUNCTION__.5886+0x75>
    2f9f:	48 8d 35 a9 18 01 00 	lea    0x118a9(%rip),%rsi        # 1484f <__PRETTY_FUNCTION__.5886+0x6f>
    2fa6:	48 0f 44 f0          	cmove  %rax,%rsi
    2faa:	31 c0                	xor    %eax,%eax
    2fac:	e8 bf e9 ff ff       	callq  1970 <__printf_chk@plt>
    2fb1:	48 8d 35 50 1c 01 00 	lea    0x11c50(%rip),%rsi        # 14c08 <__PRETTY_FUNCTION__.5886+0x428>
    2fb8:	bf 01 00 00 00       	mov    $0x1,%edi
    2fbd:	31 c0                	xor    %eax,%eax
    2fbf:	e8 4c 43 00 00       	callq  7310 <rootsim_error>
    2fc4:	48 8b 73 30          	mov    0x30(%rbx),%rsi
    2fc8:	e9 31 fd ff ff       	jmpq   2cfe <do_malloc+0x17e>
    2fcd:	0f 1f 00             	nopl   (%rax)

0000000000002fd0 <do_free>:
    2fd0:	80 3d 29 62 34 00 00 	cmpb   $0x0,0x346229(%rip)        # 349200 <rootsim_config+0x40>
    2fd7:	48 89 d7             	mov    %rdx,%rdi
    2fda:	0f 85 90 01 00 00    	jne    3170 <do_free+0x1a0>
    2fe0:	48 85 d2             	test   %rdx,%rdx
    2fe3:	0f 84 9f 01 00 00    	je     3188 <do_free+0x1b8>
    2fe9:	41 56                	push   %r14
    2feb:	41 55                	push   %r13
    2fed:	41 54                	push   %r12
    2fef:	55                   	push   %rbp
    2ff0:	53                   	push   %rbx
    2ff1:	48 8b 42 f8          	mov    -0x8(%rdx),%rax
    2ff5:	48 8b 18             	mov    (%rax),%rbx
    2ff8:	48 85 db             	test   %rbx,%rbx
    2ffb:	0f 84 9f 01 00 00    	je     31a0 <do_free+0x1d0>
    3001:	4c 8b 63 08          	mov    0x8(%rbx),%r12
    3005:	48 2b 7b 48          	sub    0x48(%rbx),%rdi
    3009:	31 d2                	xor    %edx,%edx
    300b:	48 89 f5             	mov    %rsi,%rbp
    300e:	48 63 c7             	movslq %edi,%rax
    3011:	48 8b 7b 38          	mov    0x38(%rbx),%rdi
    3015:	49 83 e4 fc          	and    $0xfffffffffffffffc,%r12
    3019:	49 f7 f4             	div    %r12
    301c:	49 89 c5             	mov    %rax,%r13
    301f:	8d 40 1f             	lea    0x1f(%rax),%eax
    3022:	45 85 ed             	test   %r13d,%r13d
    3025:	44 89 ee             	mov    %r13d,%esi
    3028:	41 0f 49 c5          	cmovns %r13d,%eax
    302c:	c1 fe 1f             	sar    $0x1f,%esi
    302f:	c1 ee 1b             	shr    $0x1b,%esi
    3032:	c1 f8 05             	sar    $0x5,%eax
    3035:	42 8d 0c 2e          	lea    (%rsi,%r13,1),%ecx
    3039:	48 98                	cltq   
    303b:	83 e1 1f             	and    $0x1f,%ecx
    303e:	48 c1 e0 02          	shl    $0x2,%rax
    3042:	29 f1                	sub    %esi,%ecx
    3044:	be 01 00 00 00       	mov    $0x1,%esi
    3049:	48 01 c7             	add    %rax,%rdi
    304c:	41 89 f1             	mov    %esi,%r9d
    304f:	8b 17                	mov    (%rdi),%edx
    3051:	41 d3 e1             	shl    %cl,%r9d
    3054:	44 89 c9             	mov    %r9d,%ecx
    3057:	44 85 ca             	test   %r9d,%edx
    305a:	0f 84 a6 01 00 00    	je     3206 <do_free+0x236>
    3060:	45 89 c8             	mov    %r9d,%r8d
    3063:	41 f7 d0             	not    %r8d
    3066:	44 21 c2             	and    %r8d,%edx
    3069:	89 17                	mov    %edx,(%rdi)
    306b:	8b 53 1c             	mov    0x1c(%rbx),%edx
    306e:	41 89 d6             	mov    %edx,%r14d
    3071:	41 c1 fe 05          	sar    $0x5,%r14d
    3075:	83 fa 1f             	cmp    $0x1f,%edx
    3078:	0f b6 13             	movzbl (%rbx),%edx
    307b:	44 0f 4e f6          	cmovle %esi,%r14d
    307f:	84 d2                	test   %dl,%dl
    3081:	74 70                	je     30f3 <do_free+0x123>
    3083:	8b 73 24             	mov    0x24(%rbx),%esi
    3086:	85 f6                	test   %esi,%esi
    3088:	75 0f                	jne    3099 <do_free+0xc9>
    308a:	49 63 f6             	movslq %r14d,%rsi
    308d:	83 45 34 01          	addl   $0x1,0x34(%rbp)
    3091:	48 c1 e6 02          	shl    $0x2,%rsi
    3095:	48 01 75 20          	add    %rsi,0x20(%rbp)
    3099:	48 03 43 40          	add    0x40(%rbx),%rax
    309d:	8b 30                	mov    (%rax),%esi
    309f:	85 f1                	test   %esi,%ecx
    30a1:	74 38                	je     30db <do_free+0x10b>
    30a3:	41 21 f0             	and    %esi,%r8d
    30a6:	48 8b 75 10          	mov    0x10(%rbp),%rsi
    30aa:	44 89 00             	mov    %r8d,(%rax)
    30ad:	8b 43 14             	mov    0x14(%rbx),%eax
    30b0:	83 e8 01             	sub    $0x1,%eax
    30b3:	83 7b 24 01          	cmpl   $0x1,0x24(%rbx)
    30b7:	0f 94 c1             	sete   %cl
    30ba:	85 c0                	test   %eax,%eax
    30bc:	89 43 14             	mov    %eax,0x14(%rbx)
    30bf:	40 0f 94 c7          	sete   %dil
    30c3:	4c 29 e6             	sub    %r12,%rsi
    30c6:	40 20 f9             	and    %dil,%cl
    30c9:	0f 85 21 01 00 00    	jne    31f0 <do_free+0x220>
    30cf:	48 89 75 10          	mov    %rsi,0x10(%rbp)
    30d3:	85 c0                	test   %eax,%eax
    30d5:	0f 88 e5 00 00 00    	js     31c0 <do_free+0x1f0>
    30db:	48 c7 c0 88 5e ff ff 	mov    $0xffffffffffff5e88,%rax
    30e2:	c7 43 24 01 00 00 00 	movl   $0x1,0x24(%rbx)
    30e9:	64 f2 0f 10 00       	movsd  %fs:(%rax),%xmm0
    30ee:	f2 0f 11 43 28       	movsd  %xmm0,0x28(%rbx)
    30f3:	44 39 6b 18          	cmp    %r13d,0x18(%rbx)
    30f7:	7e 04                	jle    30fd <do_free+0x12d>
    30f9:	44 89 6b 18          	mov    %r13d,0x18(%rbx)
    30fd:	8b 43 10             	mov    0x10(%rbx),%eax
    3100:	83 e8 01             	sub    $0x1,%eax
    3103:	89 43 10             	mov    %eax,0x10(%rbx)
    3106:	75 0f                	jne    3117 <do_free+0x147>
    3108:	4d 63 f6             	movslq %r14d,%r14
    310b:	83 6d 30 01          	subl   $0x1,0x30(%rbp)
    310f:	49 c1 e6 02          	shl    $0x2,%r14
    3113:	4c 29 75 18          	sub    %r14,0x18(%rbp)
    3117:	84 d2                	test   %dl,%dl
    3119:	74 43                	je     315e <do_free+0x18e>
    311b:	48 8b 4b 08          	mov    0x8(%rbx),%rcx
    311f:	f6 c1 01             	test   $0x1,%cl
    3122:	74 54                	je     3178 <do_free+0x1a8>
    3124:	8b 53 1c             	mov    0x1c(%rbx),%edx
    3127:	66 0f ef c0          	pxor   %xmm0,%xmm0
    312b:	66 0f ef c9          	pxor   %xmm1,%xmm1
    312f:	f2 0f 2a c0          	cvtsi2sd %eax,%xmm0
    3133:	f2 0f 2a ca          	cvtsi2sd %edx,%xmm1
    3137:	f2 0f 5e c1          	divsd  %xmm1,%xmm0
    313b:	f2 0f 10 0d 95 1e 01 	movsd  0x11e95(%rip),%xmm1        # 14fd8 <__PRETTY_FUNCTION__.5886+0x7f8>
    3142:	00 
    3143:	66 0f 2f c8          	comisd %xmm0,%xmm1
    3147:	76 15                	jbe    315e <do_free+0x18e>
    3149:	29 c2                	sub    %eax,%edx
    314b:	48 83 e1 fe          	and    $0xfffffffffffffffe,%rcx
    314f:	48 63 d2             	movslq %edx,%rdx
    3152:	48 89 4b 08          	mov    %rcx,0x8(%rbx)
    3156:	4c 0f af e2          	imul   %rdx,%r12
    315a:	4c 29 65 08          	sub    %r12,0x8(%rbp)
    315e:	5b                   	pop    %rbx
    315f:	5d                   	pop    %rbp
    3160:	41 5c                	pop    %r12
    3162:	41 5d                	pop    %r13
    3164:	41 5e                	pop    %r14
    3166:	c3                   	retq   
    3167:	66 0f 1f 84 00 00 00 	nopw   0x0(%rax,%rax,1)
    316e:	00 00 
    3170:	e9 1b 2b 00 00       	jmpq   5c90 <rsfree>
    3175:	0f 1f 00             	nopl   (%rax)
    3178:	4c 29 65 08          	sub    %r12,0x8(%rbp)
    317c:	5b                   	pop    %rbx
    317d:	5d                   	pop    %rbp
    317e:	41 5c                	pop    %r12
    3180:	41 5d                	pop    %r13
    3182:	41 5e                	pop    %r14
    3184:	c3                   	retq   
    3185:	0f 1f 00             	nopl   (%rax)
    3188:	48 8d 35 ee 16 01 00 	lea    0x116ee(%rip),%rsi        # 1487d <__PRETTY_FUNCTION__.5886+0x9d>
    318f:	31 c0                	xor    %eax,%eax
    3191:	e9 7a 41 00 00       	jmpq   7310 <rootsim_error>
    3196:	66 2e 0f 1f 84 00 00 	nopw   %cs:0x0(%rax,%rax,1)
    319d:	00 00 00 
    31a0:	5b                   	pop    %rbx
    31a1:	48 8d 35 88 1a 01 00 	lea    0x11a88(%rip),%rsi        # 14c30 <__PRETTY_FUNCTION__.5886+0x450>
    31a8:	5d                   	pop    %rbp
    31a9:	31 ff                	xor    %edi,%edi
    31ab:	41 5c                	pop    %r12
    31ad:	31 c0                	xor    %eax,%eax
    31af:	41 5d                	pop    %r13
    31b1:	41 5e                	pop    %r14
    31b3:	e9 58 41 00 00       	jmpq   7310 <rootsim_error>
    31b8:	0f 1f 84 00 00 00 00 	nopl   0x0(%rax,%rax,1)
    31bf:	00 
    31c0:	48 8d 15 7b 16 01 00 	lea    0x1167b(%rip),%rdx        # 14842 <__PRETTY_FUNCTION__.5886+0x62>
    31c7:	b9 ab 01 00 00       	mov    $0x1ab,%ecx
    31cc:	48 8d 35 cd 1a 01 00 	lea    0x11acd(%rip),%rsi        # 14ca0 <__PRETTY_FUNCTION__.5886+0x4c0>
    31d3:	31 c0                	xor    %eax,%eax
    31d5:	bf 01 00 00 00       	mov    $0x1,%edi
    31da:	e8 31 41 00 00       	callq  7310 <rootsim_error>
    31df:	0f b6 13             	movzbl (%rbx),%edx
    31e2:	e9 f4 fe ff ff       	jmpq   30db <do_free+0x10b>
    31e7:	66 0f 1f 84 00 00 00 	nopw   0x0(%rax,%rax,1)
    31ee:	00 00 
    31f0:	49 63 c6             	movslq %r14d,%rax
    31f3:	48 89 75 10          	mov    %rsi,0x10(%rbp)
    31f7:	89 ca                	mov    %ecx,%edx
    31f9:	48 c1 e0 02          	shl    $0x2,%rax
    31fd:	48 29 45 20          	sub    %rax,0x20(%rbp)
    3201:	e9 d5 fe ff ff       	jmpq   30db <do_free+0x10b>
    3206:	48 8b 3d 53 9e 21 00 	mov    0x219e53(%rip),%rdi        # 21d060 <stderr@@GLIBC_2.2.5>
    320d:	41 b8 90 01 00 00    	mov    $0x190,%r8d
    3213:	48 8d 0d 28 16 01 00 	lea    0x11628(%rip),%rcx        # 14842 <__PRETTY_FUNCTION__.5886+0x62>
    321a:	31 c0                	xor    %eax,%eax
    321c:	48 8d 15 3d 1a 01 00 	lea    0x11a3d(%rip),%rdx        # 14c60 <__PRETTY_FUNCTION__.5886+0x480>
    3223:	e8 38 e8 ff ff       	callq  1a60 <__fprintf_chk@plt>
    3228:	e8 83 e4 ff ff       	callq  16b0 <abort@plt>
    322d:	0f 1f 00             	nopl   (%rax)

0000000000003230 <recoverable_init>:
    3230:	41 55                	push   %r13
    3232:	41 54                	push   %r12
    3234:	55                   	push   %rbp
    3235:	53                   	push   %rbx
    3236:	48 83 ec 08          	sub    $0x8,%rsp
    323a:	8b 3d 70 5f 34 00    	mov    0x345f70(%rip),%edi        # 3491b0 <n_prc_tot>
    3240:	48 c1 e7 03          	shl    $0x3,%rdi
    3244:	e8 07 2a 00 00       	callq  5c50 <rsalloc>
    3249:	8b 15 61 5f 34 00    	mov    0x345f61(%rip),%edx        # 3491b0 <n_prc_tot>
    324f:	48 89 05 0a 1f 32 00 	mov    %rax,0x321f0a(%rip)        # 325160 <recoverable_state>
    3256:	85 d2                	test   %edx,%edx
    3258:	74 6e                	je     32c8 <recoverable_init+0x98>
    325a:	31 db                	xor    %ebx,%ebx
    325c:	4c 8d 25 65 1a 01 00 	lea    0x11a65(%rip),%r12        # 14cc8 <__PRETTY_FUNCTION__.5886+0x4e8>
    3263:	eb 1f                	jmp    3284 <recoverable_init+0x54>
    3265:	0f 1f 00             	nopl   (%rax)
    3268:	bf 01 00 00 00       	mov    $0x1,%edi
    326d:	83 c3 01             	add    $0x1,%ebx
    3270:	e8 3b f4 ff ff       	callq  26b0 <malloc_state_init>
    3275:	39 1d 35 5f 34 00    	cmp    %ebx,0x345f35(%rip)        # 3491b0 <n_prc_tot>
    327b:	76 4b                	jbe    32c8 <recoverable_init+0x98>
    327d:	48 8b 05 dc 1e 32 00 	mov    0x321edc(%rip),%rax        # 325160 <recoverable_state>
    3284:	89 dd                	mov    %ebx,%ebp
    3286:	bf 48 00 00 00       	mov    $0x48,%edi
    328b:	4c 8d 2c e8          	lea    (%rax,%rbp,8),%r13
    328f:	e8 bc 29 00 00       	callq  5c50 <rsalloc>
    3294:	49 89 45 00          	mov    %rax,0x0(%r13)
    3298:	48 8b 05 c1 1e 32 00 	mov    0x321ec1(%rip),%rax        # 325160 <recoverable_state>
    329f:	48 8b 34 e8          	mov    (%rax,%rbp,8),%rsi
    32a3:	48 85 f6             	test   %rsi,%rsi
    32a6:	75 c0                	jne    3268 <recoverable_init+0x38>
    32a8:	4c 89 e6             	mov    %r12,%rsi
    32ab:	31 c0                	xor    %eax,%eax
    32ad:	bf 01 00 00 00       	mov    $0x1,%edi
    32b2:	e8 59 40 00 00       	callq  7310 <rootsim_error>
    32b7:	48 8b 05 a2 1e 32 00 	mov    0x321ea2(%rip),%rax        # 325160 <recoverable_state>
    32be:	48 8b 34 e8          	mov    (%rax,%rbp,8),%rsi
    32c2:	eb a4                	jmp    3268 <recoverable_init+0x38>
    32c4:	0f 1f 40 00          	nopl   0x0(%rax)
    32c8:	48 83 c4 08          	add    $0x8,%rsp
    32cc:	5b                   	pop    %rbx
    32cd:	5d                   	pop    %rbp
    32ce:	41 5c                	pop    %r12
    32d0:	41 5d                	pop    %r13
    32d2:	c3                   	retq   
    32d3:	0f 1f 00             	nopl   (%rax)
    32d6:	66 2e 0f 1f 84 00 00 	nopw   %cs:0x0(%rax,%rax,1)
    32dd:	00 00 00 

00000000000032e0 <recoverable_fini>:
    32e0:	8b 05 ca 5e 34 00    	mov    0x345eca(%rip),%eax        # 3491b0 <n_prc_tot>
    32e6:	85 c0                	test   %eax,%eax
    32e8:	0f 84 a6 00 00 00    	je     3394 <recoverable_fini+0xb4>
    32ee:	41 55                	push   %r13
    32f0:	41 54                	push   %r12
    32f2:	55                   	push   %rbp
    32f3:	31 ed                	xor    %ebp,%ebp
    32f5:	53                   	push   %rbx
    32f6:	48 83 ec 08          	sub    $0x8,%rsp
    32fa:	66 0f 1f 44 00 00    	nopw   0x0(%rax,%rax,1)
    3300:	48 8b 05 59 1e 32 00 	mov    0x321e59(%rip),%rax        # 325160 <recoverable_state>
    3307:	41 89 ed             	mov    %ebp,%r13d
    330a:	31 db                	xor    %ebx,%ebx
    330c:	4e 8d 24 ed 00 00 00 	lea    0x0(,%r13,8),%r12
    3313:	00 
    3314:	4a 8b 14 e8          	mov    (%rax,%r13,8),%rdx
    3318:	8b 72 28             	mov    0x28(%rdx),%esi
    331b:	85 f6                	test   %esi,%esi
    331d:	74 3b                	je     335a <recoverable_fini+0x7a>
    331f:	90                   	nop
    3320:	89 d8                	mov    %ebx,%eax
    3322:	48 8d 0c 80          	lea    (%rax,%rax,4),%rcx
    3326:	48 8d 0c 48          	lea    (%rax,%rcx,2),%rcx
    332a:	48 8b 42 40          	mov    0x40(%rdx),%rax
    332e:	48 8d 04 c8          	lea    (%rax,%rcx,8),%rax
    3332:	48 85 c0             	test   %rax,%rax
    3335:	74 1c                	je     3353 <recoverable_fini+0x73>
    3337:	48 8b 78 30          	mov    0x30(%rax),%rdi
    333b:	48 85 ff             	test   %rdi,%rdi
    333e:	74 13                	je     3353 <recoverable_fini+0x73>
    3340:	e8 4b 29 00 00       	callq  5c90 <rsfree>
    3345:	48 8b 05 14 1e 32 00 	mov    0x321e14(%rip),%rax        # 325160 <recoverable_state>
    334c:	4a 8b 14 20          	mov    (%rax,%r12,1),%rdx
    3350:	8b 72 28             	mov    0x28(%rdx),%esi
    3353:	83 c3 01             	add    $0x1,%ebx
    3356:	39 de                	cmp    %ebx,%esi
    3358:	77 c6                	ja     3320 <recoverable_fini+0x40>
    335a:	48 8b 7a 40          	mov    0x40(%rdx),%rdi
    335e:	83 c5 01             	add    $0x1,%ebp
    3361:	e8 2a 29 00 00       	callq  5c90 <rsfree>
    3366:	48 8b 05 f3 1d 32 00 	mov    0x321df3(%rip),%rax        # 325160 <recoverable_state>
    336d:	4a 8b 3c e8          	mov    (%rax,%r13,8),%rdi
    3371:	e8 1a 29 00 00       	callq  5c90 <rsfree>
    3376:	39 2d 34 5e 34 00    	cmp    %ebp,0x345e34(%rip)        # 3491b0 <n_prc_tot>
    337c:	77 82                	ja     3300 <recoverable_fini+0x20>
    337e:	48 8b 3d db 1d 32 00 	mov    0x321ddb(%rip),%rdi        # 325160 <recoverable_state>
    3385:	48 83 c4 08          	add    $0x8,%rsp
    3389:	5b                   	pop    %rbx
    338a:	5d                   	pop    %rbp
    338b:	41 5c                	pop    %r12
    338d:	41 5d                	pop    %r13
    338f:	e9 fc 28 00 00       	jmpq   5c90 <rsfree>
    3394:	48 8b 3d c5 1d 32 00 	mov    0x321dc5(%rip),%rdi        # 325160 <recoverable_state>
    339b:	e9 f0 28 00 00       	jmpq   5c90 <rsfree>

00000000000033a0 <get_log_size>:
    33a0:	48 85 ff             	test   %rdi,%rdi
    33a3:	74 43                	je     33e8 <get_log_size+0x48>
    33a5:	80 3f 00             	cmpb   $0x0,(%rdi)
    33a8:	74 1e                	je     33c8 <get_log_size+0x28>
    33aa:	48 63 57 34          	movslq 0x34(%rdi),%rdx
    33ae:	48 8b 47 10          	mov    0x10(%rdi),%rax
    33b2:	48 03 47 20          	add    0x20(%rdi),%rax
    33b6:	48 8d 0c 92          	lea    (%rdx,%rdx,4),%rcx
    33ba:	48 8d 14 4a          	lea    (%rdx,%rcx,2),%rdx
    33be:	48 8d 44 d0 50       	lea    0x50(%rax,%rdx,8),%rax
    33c3:	c3                   	retq   
    33c4:	0f 1f 40 00          	nopl   0x0(%rax)
    33c8:	48 63 57 30          	movslq 0x30(%rdi),%rdx
    33cc:	48 8b 47 08          	mov    0x8(%rdi),%rax
    33d0:	48 03 47 18          	add    0x18(%rdi),%rax
    33d4:	48 8d 0c 92          	lea    (%rdx,%rdx,4),%rcx
    33d8:	48 8d 14 4a          	lea    (%rdx,%rcx,2),%rdx
    33dc:	48 8d 44 d0 50       	lea    0x50(%rax,%rdx,8),%rax
    33e1:	c3                   	retq   
    33e2:	66 0f 1f 44 00 00    	nopw   0x0(%rax,%rax,1)
    33e8:	31 c0                	xor    %eax,%eax
    33ea:	c3                   	retq   
    33eb:	0f 1f 44 00 00       	nopl   0x0(%rax,%rax,1)

00000000000033f0 <__wrap_malloc>:
    33f0:	48 c7 c0 78 5e ff ff 	mov    $0xffffffffffff5e78,%rax
    33f7:	48 89 fa             	mov    %rdi,%rdx
    33fa:	64 8b 08             	mov    %fs:(%rax),%ecx
    33fd:	48 8b 05 5c 1d 32 00 	mov    0x321d5c(%rip),%rax        # 325160 <recoverable_state>
    3404:	48 8b 34 c8          	mov    (%rax,%rcx,8),%rsi
    3408:	48 89 cf             	mov    %rcx,%rdi
    340b:	e9 70 f7 ff ff       	jmpq   2b80 <do_malloc>

0000000000003410 <__wrap_free>:
    3410:	48 c7 c0 78 5e ff ff 	mov    $0xffffffffffff5e78,%rax
    3417:	48 89 fa             	mov    %rdi,%rdx
    341a:	64 8b 08             	mov    %fs:(%rax),%ecx
    341d:	48 8b 05 3c 1d 32 00 	mov    0x321d3c(%rip),%rax        # 325160 <recoverable_state>
    3424:	48 8b 34 c8          	mov    (%rax,%rcx,8),%rsi
    3428:	48 89 cf             	mov    %rcx,%rdi
    342b:	e9 a0 fb ff ff       	jmpq   2fd0 <do_free>

0000000000003430 <__wrap_realloc>:
    3430:	41 56                	push   %r14
    3432:	48 8b 05 27 1d 32 00 	mov    0x321d27(%rip),%rax        # 325160 <recoverable_state>
    3439:	41 55                	push   %r13
    343b:	49 89 fd             	mov    %rdi,%r13
    343e:	41 54                	push   %r12
    3440:	49 89 f4             	mov    %rsi,%r12
    3443:	55                   	push   %rbp
    3444:	53                   	push   %rbx
    3445:	48 c7 c3 78 5e ff ff 	mov    $0xffffffffffff5e78,%rbx
    344c:	64 8b 13             	mov    %fs:(%rbx),%edx
    344f:	48 8b 34 d0          	mov    (%rax,%rdx,8),%rsi
    3453:	48 89 d7             	mov    %rdx,%rdi
    3456:	4d 85 ed             	test   %r13,%r13
    3459:	74 75                	je     34d0 <__wrap_realloc+0xa0>
    345b:	4d 85 e4             	test   %r12,%r12
    345e:	74 58                	je     34b8 <__wrap_realloc+0x88>
    3460:	49 8b 45 f8          	mov    -0x8(%r13),%rax
    3464:	4c 89 e2             	mov    %r12,%rdx
    3467:	48 8b 00             	mov    (%rax),%rax
    346a:	48 8b 68 08          	mov    0x8(%rax),%rbp
    346e:	e8 0d f7 ff ff       	callq  2b80 <do_malloc>
    3473:	49 89 c6             	mov    %rax,%r14
    3476:	48 85 c0             	test   %rax,%rax
    3479:	74 2e                	je     34a9 <__wrap_realloc+0x79>
    347b:	49 39 ec             	cmp    %rbp,%r12
    347e:	48 89 ea             	mov    %rbp,%rdx
    3481:	4c 89 ee             	mov    %r13,%rsi
    3484:	48 89 c7             	mov    %rax,%rdi
    3487:	49 0f 43 d4          	cmovae %r12,%rdx
    348b:	e8 60 e4 ff ff       	callq  18f0 <memcpy@plt>
    3490:	64 8b 13             	mov    %fs:(%rbx),%edx
    3493:	48 8b 05 c6 1c 32 00 	mov    0x321cc6(%rip),%rax        # 325160 <recoverable_state>
    349a:	48 8b 34 d0          	mov    (%rax,%rdx,8),%rsi
    349e:	48 89 d7             	mov    %rdx,%rdi
    34a1:	4c 89 ea             	mov    %r13,%rdx
    34a4:	e8 27 fb ff ff       	callq  2fd0 <do_free>
    34a9:	5b                   	pop    %rbx
    34aa:	4c 89 f0             	mov    %r14,%rax
    34ad:	5d                   	pop    %rbp
    34ae:	41 5c                	pop    %r12
    34b0:	41 5d                	pop    %r13
    34b2:	41 5e                	pop    %r14
    34b4:	c3                   	retq   
    34b5:	0f 1f 00             	nopl   (%rax)
    34b8:	4c 89 ea             	mov    %r13,%rdx
    34bb:	45 31 f6             	xor    %r14d,%r14d
    34be:	e8 0d fb ff ff       	callq  2fd0 <do_free>
    34c3:	5b                   	pop    %rbx
    34c4:	4c 89 f0             	mov    %r14,%rax
    34c7:	5d                   	pop    %rbp
    34c8:	41 5c                	pop    %r12
    34ca:	41 5d                	pop    %r13
    34cc:	41 5e                	pop    %r14
    34ce:	c3                   	retq   
    34cf:	90                   	nop
    34d0:	5b                   	pop    %rbx
    34d1:	4c 89 e2             	mov    %r12,%rdx
    34d4:	5d                   	pop    %rbp
    34d5:	41 5c                	pop    %r12
    34d7:	41 5d                	pop    %r13
    34d9:	41 5e                	pop    %r14
    34db:	e9 a0 f6 ff ff       	jmpq   2b80 <do_malloc>

00000000000034e0 <__wrap_calloc>:
    34e0:	48 85 ff             	test   %rdi,%rdi
    34e3:	74 63                	je     3548 <__wrap_calloc+0x68>
    34e5:	41 54                	push   %r12
    34e7:	49 89 f4             	mov    %rsi,%r12
    34ea:	48 85 f6             	test   %rsi,%rsi
    34ed:	74 49                	je     3538 <__wrap_calloc+0x58>
    34ef:	48 c7 c0 78 5e ff ff 	mov    $0xffffffffffff5e78,%rax
    34f6:	4c 0f af e7          	imul   %rdi,%r12
    34fa:	64 8b 10             	mov    %fs:(%rax),%edx
    34fd:	48 8b 05 5c 1c 32 00 	mov    0x321c5c(%rip),%rax        # 325160 <recoverable_state>
    3504:	48 8b 34 d0          	mov    (%rax,%rdx,8),%rsi
    3508:	48 89 d7             	mov    %rdx,%rdi
    350b:	4c 89 e2             	mov    %r12,%rdx
    350e:	e8 6d f6 ff ff       	callq  2b80 <do_malloc>
    3513:	49 89 c0             	mov    %rax,%r8
    3516:	48 85 c0             	test   %rax,%rax
    3519:	74 10                	je     352b <__wrap_calloc+0x4b>
    351b:	4c 89 e2             	mov    %r12,%rdx
    351e:	31 f6                	xor    %esi,%esi
    3520:	48 89 c7             	mov    %rax,%rdi
    3523:	e8 28 e3 ff ff       	callq  1850 <memset@plt>
    3528:	49 89 c0             	mov    %rax,%r8
    352b:	4c 89 c0             	mov    %r8,%rax
    352e:	41 5c                	pop    %r12
    3530:	c3                   	retq   
    3531:	0f 1f 80 00 00 00 00 	nopl   0x0(%rax)
    3538:	45 31 c0             	xor    %r8d,%r8d
    353b:	41 5c                	pop    %r12
    353d:	4c 89 c0             	mov    %r8,%rax
    3540:	c3                   	retq   
    3541:	0f 1f 80 00 00 00 00 	nopl   0x0(%rax)
    3548:	45 31 c0             	xor    %r8d,%r8d
    354b:	4c 89 c0             	mov    %r8,%rax
    354e:	c3                   	retq   
    354f:	90                   	nop

0000000000003550 <clean_buffers_on_gvt>:
    3550:	41 54                	push   %r12
    3552:	89 ff                	mov    %edi,%edi
    3554:	55                   	push   %rbp
    3555:	53                   	push   %rbx
    3556:	48 83 ec 10          	sub    $0x10,%rsp
    355a:	48 8b 05 ff 1b 32 00 	mov    0x321bff(%rip),%rax        # 325160 <recoverable_state>
    3561:	4c 8b 24 f8          	mov    (%rax,%rdi,8),%r12
    3565:	41 8b 4c 24 28       	mov    0x28(%r12),%ecx
    356a:	83 f9 10             	cmp    $0x10,%ecx
    356d:	0f 8e cf 00 00 00    	jle    3642 <clean_buffers_on_gvt+0xf2>
    3573:	bb 10 00 00 00       	mov    $0x10,%ebx
    3578:	0f 1f 84 00 00 00 00 	nopl   0x0(%rax,%rax,1)
    357f:	00 
    3580:	48 63 c3             	movslq %ebx,%rax
    3583:	48 8d 14 80          	lea    (%rax,%rax,4),%rdx
    3587:	48 8d 14 50          	lea    (%rax,%rdx,2),%rdx
    358b:	49 8b 44 24 40       	mov    0x40(%r12),%rax
    3590:	48 8d 2c d0          	lea    (%rax,%rdx,8),%rbp
    3594:	44 8b 45 10          	mov    0x10(%rbp),%r8d
    3598:	45 85 c0             	test   %r8d,%r8d
    359b:	0f 85 af 00 00 00    	jne    3650 <clean_buffers_on_gvt+0x100>
    35a1:	66 0f 2f 45 28       	comisd 0x28(%rbp),%xmm0
    35a6:	0f 86 a4 00 00 00    	jbe    3650 <clean_buffers_on_gvt+0x100>
    35ac:	f6 45 08 02          	testb  $0x2,0x8(%rbp)
    35b0:	0f 85 9a 00 00 00    	jne    3650 <clean_buffers_on_gvt+0x100>
    35b6:	48 8b 7d 30          	mov    0x30(%rbp),%rdi
    35ba:	48 85 ff             	test   %rdi,%rdi
    35bd:	0f 84 8d 00 00 00    	je     3650 <clean_buffers_on_gvt+0x100>
    35c3:	f2 0f 11 44 24 08    	movsd  %xmm0,0x8(%rsp)
    35c9:	e8 c2 26 00 00       	callq  5c90 <rsfree>
    35ce:	8b 55 50             	mov    0x50(%rbp),%edx
    35d1:	66 0f ef c9          	pxor   %xmm1,%xmm1
    35d5:	c7 45 24 00 00 00 00 	movl   $0x0,0x24(%rbp)
    35dc:	f2 0f 10 44 24 08    	movsd  0x8(%rsp),%xmm0
    35e2:	0f 11 4d 30          	movups %xmm1,0x30(%rbp)
    35e6:	83 fa ff             	cmp    $0xffffffff,%edx
    35e9:	0f 11 4d 40          	movups %xmm1,0x40(%rbp)
    35ed:	74 1a                	je     3609 <clean_buffers_on_gvt+0xb9>
    35ef:	48 63 c2             	movslq %edx,%rax
    35f2:	49 8b 7c 24 40       	mov    0x40(%r12),%rdi
    35f7:	8b 4d 54             	mov    0x54(%rbp),%ecx
    35fa:	48 8d 34 80          	lea    (%rax,%rax,4),%rsi
    35fe:	48 8d 04 70          	lea    (%rax,%rsi,2),%rax
    3602:	48 8d 04 c7          	lea    (%rdi,%rax,8),%rax
    3606:	89 48 54             	mov    %ecx,0x54(%rax)
    3609:	48 63 45 54          	movslq 0x54(%rbp),%rax
    360d:	83 f8 ff             	cmp    $0xffffffff,%eax
    3610:	74 14                	je     3626 <clean_buffers_on_gvt+0xd6>
    3612:	49 8b 74 24 40       	mov    0x40(%r12),%rsi
    3617:	48 8d 0c 80          	lea    (%rax,%rax,4),%rcx
    361b:	48 8d 04 48          	lea    (%rax,%rcx,2),%rax
    361f:	48 8d 04 c6          	lea    (%rsi,%rax,8),%rax
    3623:	89 50 50             	mov    %edx,0x50(%rax)
    3626:	49 63 44 24 28       	movslq 0x28(%r12),%rax
    362b:	8d 48 ff             	lea    -0x1(%rax),%ecx
    362e:	39 d9                	cmp    %ebx,%ecx
    3630:	7f 36                	jg     3668 <clean_buffers_on_gvt+0x118>
    3632:	83 c3 01             	add    $0x1,%ebx
    3635:	41 89 4c 24 28       	mov    %ecx,0x28(%r12)
    363a:	39 d9                	cmp    %ebx,%ecx
    363c:	0f 8f 3e ff ff ff    	jg     3580 <clean_buffers_on_gvt+0x30>
    3642:	48 83 c4 10          	add    $0x10,%rsp
    3646:	5b                   	pop    %rbx
    3647:	5d                   	pop    %rbp
    3648:	41 5c                	pop    %r12
    364a:	c3                   	retq   
    364b:	0f 1f 44 00 00       	nopl   0x0(%rax,%rax,1)
    3650:	83 c3 01             	add    $0x1,%ebx
    3653:	39 d9                	cmp    %ebx,%ecx
    3655:	0f 8f 25 ff ff ff    	jg     3580 <clean_buffers_on_gvt+0x30>
    365b:	48 83 c4 10          	add    $0x10,%rsp
    365f:	5b                   	pop    %rbx
    3660:	5d                   	pop    %rbp
    3661:	41 5c                	pop    %r12
    3663:	c3                   	retq   
    3664:	0f 1f 40 00          	nopl   0x0(%rax)
    3668:	48 8d 14 80          	lea    (%rax,%rax,4),%rdx
    366c:	48 8d 14 50          	lea    (%rax,%rdx,2),%rdx
    3670:	49 8b 44 24 40       	mov    0x40(%r12),%rax
    3675:	48 8d 44 d0 a8       	lea    -0x58(%rax,%rdx,8),%rax
    367a:	f3 0f 6f 10          	movdqu (%rax),%xmm2
    367e:	0f 11 55 00          	movups %xmm2,0x0(%rbp)
    3682:	f3 0f 6f 58 10       	movdqu 0x10(%rax),%xmm3
    3687:	0f 11 5d 10          	movups %xmm3,0x10(%rbp)
    368b:	f3 0f 6f 60 20       	movdqu 0x20(%rax),%xmm4
    3690:	0f 11 65 20          	movups %xmm4,0x20(%rbp)
    3694:	f3 0f 6f 68 30       	movdqu 0x30(%rax),%xmm5
    3699:	0f 11 6d 30          	movups %xmm5,0x30(%rbp)
    369d:	f3 0f 6f 70 40       	movdqu 0x40(%rax),%xmm6
    36a2:	0f 11 75 40          	movups %xmm6,0x40(%rbp)
    36a6:	48 8b 40 50          	mov    0x50(%rax),%rax
    36aa:	89 5d 20             	mov    %ebx,0x20(%rbp)
    36ad:	48 89 45 50          	mov    %rax,0x50(%rbp)
    36b1:	83 f8 ff             	cmp    $0xffffffff,%eax
    36b4:	74 16                	je     36cc <clean_buffers_on_gvt+0x17c>
    36b6:	48 98                	cltq   
    36b8:	49 8b 4c 24 40       	mov    0x40(%r12),%rcx
    36bd:	48 8d 14 80          	lea    (%rax,%rax,4),%rdx
    36c1:	48 8d 04 50          	lea    (%rax,%rdx,2),%rax
    36c5:	48 8d 04 c1          	lea    (%rcx,%rax,8),%rax
    36c9:	89 58 54             	mov    %ebx,0x54(%rax)
    36cc:	48 63 45 54          	movslq 0x54(%rbp),%rax
    36d0:	83 f8 ff             	cmp    $0xffffffff,%eax
    36d3:	74 14                	je     36e9 <clean_buffers_on_gvt+0x199>
    36d5:	48 8d 14 80          	lea    (%rax,%rax,4),%rdx
    36d9:	48 8d 04 50          	lea    (%rax,%rdx,2),%rax
    36dd:	49 8b 54 24 40       	mov    0x40(%r12),%rdx
    36e2:	48 8d 04 c2          	lea    (%rdx,%rax,8),%rax
    36e6:	89 58 50             	mov    %ebx,0x50(%rax)
    36e9:	48 8b 45 30          	mov    0x30(%rbp),%rax
    36ed:	48 89 28             	mov    %rbp,(%rax)
    36f0:	41 8b 44 24 28       	mov    0x28(%r12),%eax
    36f5:	8d 48 ff             	lea    -0x1(%rax),%ecx
    36f8:	e9 38 ff ff ff       	jmpq   3635 <clean_buffers_on_gvt+0xe5>
    36fd:	0f 1f 00             	nopl   (%rax)

0000000000003700 <log_full>:
    3700:	41 57                	push   %r15
    3702:	41 56                	push   %r14
    3704:	41 55                	push   %r13
    3706:	41 54                	push   %r12
    3708:	55                   	push   %rbp
    3709:	53                   	push   %rbx
    370a:	48 83 ec 58          	sub    $0x58,%rsp
    370e:	89 7c 24 3c          	mov    %edi,0x3c(%rsp)
    3712:	0f 31                	rdtsc  
    3714:	48 63 ff             	movslq %edi,%rdi
    3717:	89 c0                	mov    %eax,%eax
    3719:	48 c1 e2 20          	shl    $0x20,%rdx
    371d:	48 09 c2             	or     %rax,%rdx
    3720:	48 8d 04 fd 00 00 00 	lea    0x0(,%rdi,8),%rax
    3727:	00 
    3728:	48 89 7c 24 48       	mov    %rdi,0x48(%rsp)
    372d:	48 89 44 24 18       	mov    %rax,0x18(%rsp)
    3732:	48 8b 05 27 1a 32 00 	mov    0x321a27(%rip),%rax        # 325160 <recoverable_state>
    3739:	48 89 54 24 40       	mov    %rdx,0x40(%rsp)
    373e:	48 8b 3c f8          	mov    (%rax,%rdi,8),%rdi
    3742:	c6 07 00             	movb   $0x0,(%rdi)
    3745:	e8 56 fc ff ff       	callq  33a0 <get_log_size>
    374a:	48 89 c7             	mov    %rax,%rdi
    374d:	48 89 44 24 30       	mov    %rax,0x30(%rsp)
    3752:	e8 f9 24 00 00       	callq  5c50 <rsalloc>
    3757:	48 89 44 24 28       	mov    %rax,0x28(%rsp)
    375c:	48 85 c0             	test   %rax,%rax
    375f:	0f 84 7d 03 00 00    	je     3ae2 <log_full+0x3e2>
    3765:	48 8b 74 24 48       	mov    0x48(%rsp),%rsi
    376a:	48 8b 05 ef 19 32 00 	mov    0x3219ef(%rip),%rax        # 325160 <recoverable_state>
    3771:	48 8b 7c 24 28       	mov    0x28(%rsp),%rdi
    3776:	48 8b 04 f0          	mov    (%rax,%rsi,8),%rax
    377a:	4c 8d 7f 50          	lea    0x50(%rdi),%r15
    377e:	f3 0f 6f 30          	movdqu (%rax),%xmm6
    3782:	0f 11 37             	movups %xmm6,(%rdi)
    3785:	f3 0f 6f 78 10       	movdqu 0x10(%rax),%xmm7
    378a:	48 8b 15 cf 19 32 00 	mov    0x3219cf(%rip),%rdx        # 325160 <recoverable_state>
    3791:	0f 11 7f 10          	movups %xmm7,0x10(%rdi)
    3795:	f3 0f 6f 70 20       	movdqu 0x20(%rax),%xmm6
    379a:	0f 11 77 20          	movups %xmm6,0x20(%rdi)
    379e:	f3 0f 6f 78 30       	movdqu 0x30(%rax),%xmm7
    37a3:	0f 11 7f 30          	movups %xmm7,0x30(%rdi)
    37a7:	48 8b 40 40          	mov    0x40(%rax),%rax
    37ab:	48 89 47 40          	mov    %rax,0x40(%rdi)
    37af:	48 c7 c0 88 5e ff ff 	mov    $0xffffffffffff5e88,%rax
    37b6:	64 f2 0f 10 00       	movsd  %fs:(%rax),%xmm0
    37bb:	48 8b 05 c6 98 21 00 	mov    0x2198c6(%rip),%rax        # 21d088 <LPS>
    37c2:	48 8b 04 f0          	mov    (%rax,%rsi,8),%rax
    37c6:	f2 0f 11 47 38       	movsd  %xmm0,0x38(%rdi)
    37cb:	48 8b 40 08          	mov    0x8(%rax),%rax
    37cf:	48 89 47 48          	mov    %rax,0x48(%rdi)
    37d3:	48 8b 04 f2          	mov    (%rdx,%rsi,8),%rax
    37d7:	8b 48 28             	mov    0x28(%rax),%ecx
    37da:	85 c9                	test   %ecx,%ecx
    37dc:	0f 8e d5 01 00 00    	jle    39b7 <log_full+0x2b7>
    37e2:	48 c7 44 24 08 00 00 	movq   $0x0,0x8(%rsp)
    37e9:	00 00 
    37eb:	41 bc 01 00 00 00    	mov    $0x1,%r12d
    37f1:	c7 44 24 38 00 00 00 	movl   $0x0,0x38(%rsp)
    37f8:	00 
    37f9:	eb 58                	jmp    3853 <log_full+0x153>
    37fb:	0f 1f 44 00 00       	nopl   0x0(%rax,%rax,1)
    3800:	48 83 7d 38 00       	cmpq   $0x0,0x38(%rbp)
    3805:	c7 45 14 00 00 00 00 	movl   $0x0,0x14(%rbp)
    380c:	c7 45 24 00 00 00 00 	movl   $0x0,0x24(%rbp)
    3813:	74 1d                	je     3832 <log_full+0x132>
    3815:	8d 41 ff             	lea    -0x1(%rcx),%eax
    3818:	48 8b 7d 40          	mov    0x40(%rbp),%rdi
    381c:	31 f6                	xor    %esi,%esi
    381e:	48 8d 14 85 04 00 00 	lea    0x4(,%rax,4),%rdx
    3825:	00 
    3826:	e8 25 e0 ff ff       	callq  1850 <memset@plt>
    382b:	48 8b 15 2e 19 32 00 	mov    0x32192e(%rip),%rdx        # 325160 <recoverable_state>
    3832:	48 8b 44 24 18       	mov    0x18(%rsp),%rax
    3837:	83 44 24 38 01       	addl   $0x1,0x38(%rsp)
    383c:	48 83 44 24 08 58    	addq   $0x58,0x8(%rsp)
    3842:	8b 7c 24 38          	mov    0x38(%rsp),%edi
    3846:	48 8b 04 02          	mov    (%rdx,%rax,1),%rax
    384a:	39 78 28             	cmp    %edi,0x28(%rax)
    384d:	0f 8e 64 01 00 00    	jle    39b7 <log_full+0x2b7>
    3853:	48 8b 6c 24 08       	mov    0x8(%rsp),%rbp
    3858:	48 03 68 40          	add    0x40(%rax),%rbp
    385c:	8b 45 1c             	mov    0x1c(%rbp),%eax
    385f:	89 c1                	mov    %eax,%ecx
    3861:	c1 f9 05             	sar    $0x5,%ecx
    3864:	83 f8 1f             	cmp    $0x1f,%eax
    3867:	8b 45 10             	mov    0x10(%rbp),%eax
    386a:	41 0f 4e cc          	cmovle %r12d,%ecx
    386e:	89 cb                	mov    %ecx,%ebx
    3870:	85 c0                	test   %eax,%eax
    3872:	74 8c                	je     3800 <log_full+0x100>
    3874:	f3 0f 6f 4d 00       	movdqu 0x0(%rbp),%xmm1
    3879:	4c 63 f1             	movslq %ecx,%r14
    387c:	4d 8d 57 58          	lea    0x58(%r15),%r10
    3880:	4c 89 d7             	mov    %r10,%rdi
    3883:	41 0f 11 0f          	movups %xmm1,(%r15)
    3887:	f3 0f 6f 55 10       	movdqu 0x10(%rbp),%xmm2
    388c:	41 0f 11 57 10       	movups %xmm2,0x10(%r15)
    3891:	f3 0f 6f 5d 20       	movdqu 0x20(%rbp),%xmm3
    3896:	41 0f 11 5f 20       	movups %xmm3,0x20(%r15)
    389b:	f3 0f 6f 65 30       	movdqu 0x30(%rbp),%xmm4
    38a0:	41 0f 11 67 30       	movups %xmm4,0x30(%r15)
    38a5:	f3 0f 6f 6d 40       	movdqu 0x40(%rbp),%xmm5
    38aa:	41 0f 11 6f 40       	movups %xmm5,0x40(%r15)
    38af:	48 8b 45 50          	mov    0x50(%rbp),%rax
    38b3:	49 89 47 50          	mov    %rax,0x50(%r15)
    38b7:	4a 8d 04 b5 00 00 00 	lea    0x0(,%r14,4),%rax
    38be:	00 
    38bf:	48 8b 75 38          	mov    0x38(%rbp),%rsi
    38c3:	48 89 c2             	mov    %rax,%rdx
    38c6:	49 89 c6             	mov    %rax,%r14
    38c9:	48 89 44 24 20       	mov    %rax,0x20(%rsp)
    38ce:	e8 1d e0 ff ff       	callq  18f0 <memcpy@plt>
    38d3:	4c 8b 4d 08          	mov    0x8(%rbp),%r9
    38d7:	4e 8d 3c 30          	lea    (%rax,%r14,1),%r15
    38db:	4d 89 cd             	mov    %r9,%r13
    38de:	49 83 e5 fc          	and    $0xfffffffffffffffc,%r13
    38e2:	41 83 e1 01          	and    $0x1,%r9d
    38e6:	74 49                	je     3931 <log_full+0x231>
    38e8:	48 63 55 1c          	movslq 0x1c(%rbp),%rdx
    38ec:	48 8b 75 48          	mov    0x48(%rbp),%rsi
    38f0:	4c 89 ff             	mov    %r15,%rdi
    38f3:	49 0f af d5          	imul   %r13,%rdx
    38f7:	e8 f4 df ff ff       	callq  18f0 <memcpy@plt>
    38fc:	48 63 45 1c          	movslq 0x1c(%rbp),%rax
    3900:	49 0f af c5          	imul   %r13,%rax
    3904:	49 01 c7             	add    %rax,%r15
    3907:	c7 45 14 00 00 00 00 	movl   $0x0,0x14(%rbp)
    390e:	48 8b 54 24 20       	mov    0x20(%rsp),%rdx
    3913:	31 f6                	xor    %esi,%esi
    3915:	c7 45 24 00 00 00 00 	movl   $0x0,0x24(%rbp)
    391c:	48 8b 7d 40          	mov    0x40(%rbp),%rdi
    3920:	e8 2b df ff ff       	callq  1850 <memset@plt>
    3925:	48 8b 15 34 18 32 00 	mov    0x321834(%rip),%rdx        # 325160 <recoverable_state>
    392c:	e9 01 ff ff ff       	jmpq   3832 <log_full+0x132>
    3931:	8d 43 ff             	lea    -0x1(%rbx),%eax
    3934:	4c 89 ff             	mov    %r15,%rdi
    3937:	4d 89 ee             	mov    %r13,%r14
    393a:	4d 89 cf             	mov    %r9,%r15
    393d:	48 8d 04 85 04 00 00 	lea    0x4(,%rax,4),%rax
    3944:	00 
    3945:	48 89 44 24 10       	mov    %rax,0x10(%rsp)
    394a:	eb 0f                	jmp    395b <log_full+0x25b>
    394c:	0f 1f 40 00          	nopl   0x0(%rax)
    3950:	49 83 c7 04          	add    $0x4,%r15
    3954:	4c 3b 7c 24 10       	cmp    0x10(%rsp),%r15
    3959:	74 54                	je     39af <log_full+0x2af>
    395b:	48 8b 45 38          	mov    0x38(%rbp),%rax
    395f:	42 8b 04 38          	mov    (%rax,%r15,1),%eax
    3963:	85 c0                	test   %eax,%eax
    3965:	74 e9                	je     3950 <log_full+0x250>
    3967:	46 8d 2c fd 00 00 00 	lea    0x0(,%r15,8),%r13d
    396e:	00 
    396f:	31 db                	xor    %ebx,%ebx
    3971:	eb 15                	jmp    3988 <log_full+0x288>
    3973:	0f 1f 44 00 00       	nopl   0x0(%rax,%rax,1)
    3978:	83 c3 01             	add    $0x1,%ebx
    397b:	83 fb 20             	cmp    $0x20,%ebx
    397e:	74 d0                	je     3950 <log_full+0x250>
    3980:	48 8b 45 38          	mov    0x38(%rbp),%rax
    3984:	42 8b 04 38          	mov    (%rax,%r15,1),%eax
    3988:	44 89 e2             	mov    %r12d,%edx
    398b:	89 d9                	mov    %ebx,%ecx
    398d:	d3 e2                	shl    %cl,%edx
    398f:	85 c2                	test   %eax,%edx
    3991:	74 e5                	je     3978 <log_full+0x278>
    3993:	42 8d 34 2b          	lea    (%rbx,%r13,1),%esi
    3997:	4c 89 f2             	mov    %r14,%rdx
    399a:	49 0f af f6          	imul   %r14,%rsi
    399e:	48 03 75 48          	add    0x48(%rbp),%rsi
    39a2:	e8 49 df ff ff       	callq  18f0 <memcpy@plt>
    39a7:	48 89 c7             	mov    %rax,%rdi
    39aa:	4c 01 f7             	add    %r14,%rdi
    39ad:	eb c9                	jmp    3978 <log_full+0x278>
    39af:	49 89 ff             	mov    %rdi,%r15
    39b2:	e9 50 ff ff ff       	jmpq   3907 <log_full+0x207>
    39b7:	4c 8b 44 24 28       	mov    0x28(%rsp),%r8
    39bc:	48 8b 7c 24 30       	mov    0x30(%rsp),%rdi
    39c1:	4c 89 c2             	mov    %r8,%rdx
    39c4:	48 01 fa             	add    %rdi,%rdx
    39c7:	4c 39 fa             	cmp    %r15,%rdx
    39ca:	74 3f                	je     3a0b <log_full+0x30b>
    39cc:	48 83 ec 08          	sub    $0x8,%rsp
    39d0:	49 89 d2             	mov    %rdx,%r10
    39d3:	49 89 f9             	mov    %rdi,%r9
    39d6:	31 c0                	xor    %eax,%eax
    39d8:	52                   	push   %rdx
    39d9:	4d 29 fa             	sub    %r15,%r10
    39dc:	48 8d 35 6d 13 01 00 	lea    0x1136d(%rip),%rsi        # 14d50 <__PRETTY_FUNCTION__.5886+0x570>
    39e3:	41 57                	push   %r15
    39e5:	4c 89 d2             	mov    %r10,%rdx
    39e8:	57                   	push   %rdi
    39e9:	8b 4c 24 5c          	mov    0x5c(%rsp),%ecx
    39ed:	bf 01 00 00 00       	mov    $0x1,%edi
    39f2:	e8 19 39 00 00       	callq  7310 <rootsim_error>
    39f7:	48 8b 7c 24 68       	mov    0x68(%rsp),%rdi
    39fc:	48 83 c4 20          	add    $0x20,%rsp
    3a00:	48 8b 05 59 17 32 00 	mov    0x321759(%rip),%rax        # 325160 <recoverable_state>
    3a07:	48 8b 04 f8          	mov    (%rax,%rdi,8),%rax
    3a0b:	c7 40 34 00 00 00 00 	movl   $0x0,0x34(%rax)
    3a12:	48 c7 40 20 00 00 00 	movq   $0x0,0x20(%rax)
    3a19:	00 
    3a1a:	48 c7 40 10 00 00 00 	movq   $0x0,0x10(%rax)
    3a21:	00 
    3a22:	0f 31                	rdtsc  
    3a24:	48 c1 e2 20          	shl    $0x20,%rdx
    3a28:	89 c3                	mov    %eax,%ebx
    3a2a:	48 09 d3             	or     %rdx,%rbx
    3a2d:	48 39 5c 24 40       	cmp    %rbx,0x40(%rsp)
    3a32:	0f 87 89 00 00 00    	ja     3ac1 <log_full+0x3c1>
    3a38:	48 2b 5c 24 40       	sub    0x40(%rsp),%rbx
    3a3d:	78 4c                	js     3a8b <log_full+0x38b>
    3a3f:	66 0f ef c0          	pxor   %xmm0,%xmm0
    3a43:	f2 48 0f 2a c3       	cvtsi2sd %rbx,%xmm0
    3a48:	8b 7c 24 3c          	mov    0x3c(%rsp),%edi
    3a4c:	be 2d 01 00 00       	mov    $0x12d,%esi
    3a51:	e8 6a c8 00 00       	callq  102c0 <statistics_post_lp_data>
    3a56:	48 8b 44 24 30       	mov    0x30(%rsp),%rax
    3a5b:	48 85 c0             	test   %rax,%rax
    3a5e:	78 46                	js     3aa6 <log_full+0x3a6>
    3a60:	66 0f ef c0          	pxor   %xmm0,%xmm0
    3a64:	f2 48 0f 2a c0       	cvtsi2sd %rax,%xmm0
    3a69:	8b 7c 24 3c          	mov    0x3c(%rsp),%edi
    3a6d:	be 2e 01 00 00       	mov    $0x12e,%esi
    3a72:	e8 49 c8 00 00       	callq  102c0 <statistics_post_lp_data>
    3a77:	48 8b 44 24 28       	mov    0x28(%rsp),%rax
    3a7c:	48 83 c4 58          	add    $0x58,%rsp
    3a80:	5b                   	pop    %rbx
    3a81:	5d                   	pop    %rbp
    3a82:	41 5c                	pop    %r12
    3a84:	41 5d                	pop    %r13
    3a86:	41 5e                	pop    %r14
    3a88:	41 5f                	pop    %r15
    3a8a:	c3                   	retq   
    3a8b:	48 89 d8             	mov    %rbx,%rax
    3a8e:	83 e3 01             	and    $0x1,%ebx
    3a91:	66 0f ef c0          	pxor   %xmm0,%xmm0
    3a95:	48 d1 e8             	shr    %rax
    3a98:	48 09 d8             	or     %rbx,%rax
    3a9b:	f2 48 0f 2a c0       	cvtsi2sd %rax,%xmm0
    3aa0:	f2 0f 58 c0          	addsd  %xmm0,%xmm0
    3aa4:	eb a2                	jmp    3a48 <log_full+0x348>
    3aa6:	48 89 c2             	mov    %rax,%rdx
    3aa9:	83 e0 01             	and    $0x1,%eax
    3aac:	66 0f ef c0          	pxor   %xmm0,%xmm0
    3ab0:	48 d1 ea             	shr    %rdx
    3ab3:	48 09 c2             	or     %rax,%rdx
    3ab6:	f2 48 0f 2a c2       	cvtsi2sd %rdx,%xmm0
    3abb:	f2 0f 58 c0          	addsd  %xmm0,%xmm0
    3abf:	eb a8                	jmp    3a69 <log_full+0x369>
    3ac1:	48 8b 54 24 40       	mov    0x40(%rsp),%rdx
    3ac6:	48 89 d9             	mov    %rbx,%rcx
    3ac9:	bf 01 00 00 00       	mov    $0x1,%edi
    3ace:	31 c0                	xor    %eax,%eax
    3ad0:	48 8d 35 e9 12 01 00 	lea    0x112e9(%rip),%rsi        # 14dc0 <__PRETTY_FUNCTION__.5886+0x5e0>
    3ad7:	e8 94 de ff ff       	callq  1970 <__printf_chk@plt>
    3adc:	cc                   	int3   
    3add:	e9 56 ff ff ff       	jmpq   3a38 <log_full+0x338>
    3ae2:	48 8d 35 0f 12 01 00 	lea    0x1120f(%rip),%rsi        # 14cf8 <__PRETTY_FUNCTION__.5886+0x518>
    3ae9:	bf 01 00 00 00       	mov    $0x1,%edi
    3aee:	e8 1d 38 00 00       	callq  7310 <rootsim_error>
    3af3:	e9 6d fc ff ff       	jmpq   3765 <log_full+0x65>
    3af8:	0f 1f 84 00 00 00 00 	nopl   0x0(%rax,%rax,1)
    3aff:	00 

0000000000003b00 <log_state>:
    3b00:	55                   	push   %rbp
    3b01:	f2 0f 10 05 b7 14 01 	movsd  0x114b7(%rip),%xmm0        # 14fc0 <__PRETTY_FUNCTION__.5886+0x7e0>
    3b08:	00 
    3b09:	89 fd                	mov    %edi,%ebp
    3b0b:	be 2c 01 00 00       	mov    $0x12c,%esi
    3b10:	e8 ab c7 00 00       	callq  102c0 <statistics_post_lp_data>
    3b15:	89 ef                	mov    %ebp,%edi
    3b17:	5d                   	pop    %rbp
    3b18:	e9 e3 fb ff ff       	jmpq   3700 <log_full>
    3b1d:	0f 1f 00             	nopl   (%rax)

0000000000003b20 <restore_full>:
    3b20:	41 57                	push   %r15
    3b22:	41 56                	push   %r14
    3b24:	41 55                	push   %r13
    3b26:	41 54                	push   %r12
    3b28:	55                   	push   %rbp
    3b29:	53                   	push   %rbx
    3b2a:	48 83 ec 48          	sub    $0x48,%rsp
    3b2e:	89 7c 24 3c          	mov    %edi,0x3c(%rsp)
    3b32:	0f 31                	rdtsc  
    3b34:	48 63 cf             	movslq %edi,%rcx
    3b37:	89 c0                	mov    %eax,%eax
    3b39:	48 c1 e2 20          	shl    $0x20,%rdx
    3b3d:	f3 0f 6f 3e          	movdqu (%rsi),%xmm7
    3b41:	48 09 c2             	or     %rax,%rdx
    3b44:	48 8d 04 cd 00 00 00 	lea    0x0(,%rcx,8),%rax
    3b4b:	00 
    3b4c:	48 89 44 24 20       	mov    %rax,0x20(%rsp)
    3b51:	48 8b 05 08 16 32 00 	mov    0x321608(%rip),%rax        # 325160 <recoverable_state>
    3b58:	48 89 54 24 30       	mov    %rdx,0x30(%rsp)
    3b5d:	48 8b 04 c8          	mov    (%rax,%rcx,8),%rax
    3b61:	0f 11 38             	movups %xmm7,(%rax)
    3b64:	f3 0f 6f 7e 10       	movdqu 0x10(%rsi),%xmm7
    3b69:	8b 50 28             	mov    0x28(%rax),%edx
    3b6c:	48 8b 58 40          	mov    0x40(%rax),%rbx
    3b70:	0f 11 78 10          	movups %xmm7,0x10(%rax)
    3b74:	f3 0f 6f 7e 20       	movdqu 0x20(%rsi),%xmm7
    3b79:	89 54 24 38          	mov    %edx,0x38(%rsp)
    3b7d:	0f 11 78 20          	movups %xmm7,0x20(%rax)
    3b81:	f3 0f 6f 56 30       	movdqu 0x30(%rsi),%xmm2
    3b86:	0f 11 50 30          	movups %xmm2,0x30(%rax)
    3b8a:	48 8b 56 40          	mov    0x40(%rsi),%rdx
    3b8e:	48 89 50 40          	mov    %rdx,0x40(%rax)
    3b92:	48 8b 05 ef 94 21 00 	mov    0x2194ef(%rip),%rax        # 21d088 <LPS>
    3b99:	48 8b 56 48          	mov    0x48(%rsi),%rdx
    3b9d:	48 8b 04 c8          	mov    (%rax,%rcx,8),%rax
    3ba1:	48 89 50 08          	mov    %rdx,0x8(%rax)
    3ba5:	48 8b 15 b4 15 32 00 	mov    0x3215b4(%rip),%rdx        # 325160 <recoverable_state>
    3bac:	48 8b 2c ca          	mov    (%rdx,%rcx,8),%rbp
    3bb0:	8b 45 28             	mov    0x28(%rbp),%eax
    3bb3:	48 89 5d 40          	mov    %rbx,0x40(%rbp)
    3bb7:	85 c0                	test   %eax,%eax
    3bb9:	0f 8e 1a 02 00 00    	jle    3dd9 <restore_full+0x2b9>
    3bbf:	48 c7 44 24 10 00 00 	movq   $0x0,0x10(%rsp)
    3bc6:	00 00 
    3bc8:	4c 8d 76 50          	lea    0x50(%rsi),%r14
    3bcc:	41 bd 01 00 00 00    	mov    $0x1,%r13d
    3bd2:	49 89 d8             	mov    %rbx,%r8
    3bd5:	c7 44 24 1c 00 00 00 	movl   $0x0,0x1c(%rsp)
    3bdc:	00 
    3bdd:	c7 44 24 18 00 00 00 	movl   $0x0,0x18(%rsp)
    3be4:	00 
    3be5:	eb 53                	jmp    3c3a <restore_full+0x11a>
    3be7:	66 0f 1f 84 00 00 00 	nopw   0x0(%rax,%rax,1)
    3bee:	00 00 
    3bf0:	41 c7 44 24 10 00 00 	movl   $0x0,0x10(%r12)
    3bf7:	00 00 
    3bf9:	41 c7 44 24 18 00 00 	movl   $0x0,0x18(%r12)
    3c00:	00 00 
    3c02:	49 89 5c 24 08       	mov    %rbx,0x8(%r12)
    3c07:	f2 0f 10 45 38       	movsd  0x38(%rbp),%xmm0
    3c0c:	f2 41 0f 11 44 24 28 	movsd  %xmm0,0x28(%r12)
    3c13:	48 8b 44 24 20       	mov    0x20(%rsp),%rax
    3c18:	83 44 24 18 01       	addl   $0x1,0x18(%rsp)
    3c1d:	8b 74 24 18          	mov    0x18(%rsp),%esi
    3c21:	48 83 44 24 10 58    	addq   $0x58,0x10(%rsp)
    3c27:	48 8b 2c 02          	mov    (%rdx,%rax,1),%rbp
    3c2b:	8b 45 28             	mov    0x28(%rbp),%eax
    3c2e:	39 f0                	cmp    %esi,%eax
    3c30:	0f 8e a3 01 00 00    	jle    3dd9 <restore_full+0x2b9>
    3c36:	4c 8b 45 40          	mov    0x40(%rbp),%r8
    3c3a:	48 8b 44 24 10       	mov    0x10(%rsp),%rax
    3c3f:	4d 8d 24 00          	lea    (%r8,%rax,1),%r12
    3c43:	41 8b 44 24 1c       	mov    0x1c(%r12),%eax
    3c48:	89 c1                	mov    %eax,%ecx
    3c4a:	c1 f9 05             	sar    $0x5,%ecx
    3c4d:	83 f8 1f             	cmp    $0x1f,%eax
    3c50:	8b 44 24 1c          	mov    0x1c(%rsp),%eax
    3c54:	41 0f 4e cd          	cmovle %r13d,%ecx
    3c58:	39 45 30             	cmp    %eax,0x30(%rbp)
    3c5b:	74 0f                	je     3c6c <restore_full+0x14c>
    3c5d:	41 8b 46 20          	mov    0x20(%r14),%eax
    3c61:	41 39 44 24 20       	cmp    %eax,0x20(%r12)
    3c66:	0f 84 94 00 00 00    	je     3d00 <restore_full+0x1e0>
    3c6c:	4d 8b 54 24 38       	mov    0x38(%r12),%r10
    3c71:	49 8b 5c 24 08       	mov    0x8(%r12),%rbx
    3c76:	41 c7 44 24 14 00 00 	movl   $0x0,0x14(%r12)
    3c7d:	00 00 
    3c7f:	41 c7 44 24 24 00 00 	movl   $0x0,0x24(%r12)
    3c86:	00 00 
    3c88:	48 83 e3 fc          	and    $0xfffffffffffffffc,%rbx
    3c8c:	4d 85 d2             	test   %r10,%r10
    3c8f:	4c 89 14 24          	mov    %r10,(%rsp)
    3c93:	0f 84 57 ff ff ff    	je     3bf0 <restore_full+0xd0>
    3c99:	4d 8b 7c 24 40       	mov    0x40(%r12),%r15
    3c9e:	8d 41 ff             	lea    -0x1(%rcx),%eax
    3ca1:	31 f6                	xor    %esi,%esi
    3ca3:	48 8d 14 85 04 00 00 	lea    0x4(,%rax,4),%rdx
    3caa:	00 
    3cab:	4c 89 ff             	mov    %r15,%rdi
    3cae:	48 89 54 24 08       	mov    %rdx,0x8(%rsp)
    3cb3:	e8 98 db ff ff       	callq  1850 <memset@plt>
    3cb8:	4c 8b 14 24          	mov    (%rsp),%r10
    3cbc:	49 89 5c 24 08       	mov    %rbx,0x8(%r12)
    3cc1:	31 f6                	xor    %esi,%esi
    3cc3:	41 c7 44 24 10 00 00 	movl   $0x0,0x10(%r12)
    3cca:	00 00 
    3ccc:	48 8b 54 24 08       	mov    0x8(%rsp),%rdx
    3cd1:	41 c7 44 24 18 00 00 	movl   $0x0,0x18(%r12)
    3cd8:	00 00 
    3cda:	4c 89 d7             	mov    %r10,%rdi
    3cdd:	e8 6e db ff ff       	callq  1850 <memset@plt>
    3ce2:	48 8b 54 24 08       	mov    0x8(%rsp),%rdx
    3ce7:	31 f6                	xor    %esi,%esi
    3ce9:	4c 89 ff             	mov    %r15,%rdi
    3cec:	e8 5f db ff ff       	callq  1850 <memset@plt>
    3cf1:	48 8b 15 68 14 32 00 	mov    0x321468(%rip),%rdx        # 325160 <recoverable_state>
    3cf8:	e9 0a ff ff ff       	jmpq   3c07 <restore_full+0xe7>
    3cfd:	0f 1f 00             	nopl   (%rax)
    3d00:	f3 41 0f 6f 16       	movdqu (%r14),%xmm2
    3d05:	48 63 d9             	movslq %ecx,%rbx
    3d08:	49 83 c6 58          	add    $0x58,%r14
    3d0c:	89 0c 24             	mov    %ecx,(%rsp)
    3d0f:	4c 8d 3c 9d 00 00 00 	lea    0x0(,%rbx,4),%r15
    3d16:	00 
    3d17:	83 44 24 1c 01       	addl   $0x1,0x1c(%rsp)
    3d1c:	41 0f 11 14 24       	movups %xmm2,(%r12)
    3d21:	f3 41 0f 6f 5e b8    	movdqu -0x48(%r14),%xmm3
    3d27:	4c 89 fa             	mov    %r15,%rdx
    3d2a:	41 0f 11 5c 24 10    	movups %xmm3,0x10(%r12)
    3d30:	f3 41 0f 6f 66 c8    	movdqu -0x38(%r14),%xmm4
    3d36:	41 0f 11 64 24 20    	movups %xmm4,0x20(%r12)
    3d3c:	f3 41 0f 6f 6e d8    	movdqu -0x28(%r14),%xmm5
    3d42:	41 0f 11 6c 24 30    	movups %xmm5,0x30(%r12)
    3d48:	f3 41 0f 6f 76 e8    	movdqu -0x18(%r14),%xmm6
    3d4e:	49 8b 7c 24 38       	mov    0x38(%r12),%rdi
    3d53:	41 0f 11 74 24 40    	movups %xmm6,0x40(%r12)
    3d59:	49 8b 46 f8          	mov    -0x8(%r14),%rax
    3d5d:	4c 89 f6             	mov    %r14,%rsi
    3d60:	4d 01 fe             	add    %r15,%r14
    3d63:	49 89 44 24 50       	mov    %rax,0x50(%r12)
    3d68:	e8 83 db ff ff       	callq  18f0 <memcpy@plt>
    3d6d:	49 8b 7c 24 40       	mov    0x40(%r12),%rdi
    3d72:	4c 89 fa             	mov    %r15,%rdx
    3d75:	31 f6                	xor    %esi,%esi
    3d77:	e8 d4 da ff ff       	callq  1850 <memset@plt>
    3d7c:	49 8b 5c 24 08       	mov    0x8(%r12),%rbx
    3d81:	8b 0c 24             	mov    (%rsp),%ecx
    3d84:	41 c7 44 24 14 00 00 	movl   $0x0,0x14(%r12)
    3d8b:	00 00 
    3d8d:	41 c7 44 24 24 00 00 	movl   $0x0,0x24(%r12)
    3d94:	00 00 
    3d96:	49 89 df             	mov    %rbx,%r15
    3d99:	49 83 e7 fc          	and    $0xfffffffffffffffc,%r15
    3d9d:	83 e3 01             	and    $0x1,%ebx
    3da0:	48 89 5c 24 08       	mov    %rbx,0x8(%rsp)
    3da5:	0f 84 a6 00 00 00    	je     3e51 <restore_full+0x331>
    3dab:	49 63 54 24 1c       	movslq 0x1c(%r12),%rdx
    3db0:	49 8b 7c 24 48       	mov    0x48(%r12),%rdi
    3db5:	4c 89 f6             	mov    %r14,%rsi
    3db8:	49 0f af d7          	imul   %r15,%rdx
    3dbc:	e8 2f db ff ff       	callq  18f0 <memcpy@plt>
    3dc1:	49 63 44 24 1c       	movslq 0x1c(%r12),%rax
    3dc6:	48 8b 15 93 13 32 00 	mov    0x321393(%rip),%rdx        # 325160 <recoverable_state>
    3dcd:	49 0f af c7          	imul   %r15,%rax
    3dd1:	49 01 c6             	add    %rax,%r14
    3dd4:	e9 3a fe ff ff       	jmpq   3c13 <restore_full+0xf3>
    3dd9:	8b 74 24 38          	mov    0x38(%rsp),%esi
    3ddd:	39 f0                	cmp    %esi,%eax
    3ddf:	0f 8c 13 01 00 00    	jl     3ef8 <restore_full+0x3d8>
    3de5:	48 8b 05 e4 11 01 00 	mov    0x111e4(%rip),%rax        # 14fd0 <__PRETTY_FUNCTION__.5886+0x7f0>
    3dec:	c6 45 00 00          	movb   $0x0,0x0(%rbp)
    3df0:	c7 45 34 00 00 00 00 	movl   $0x0,0x34(%rbp)
    3df7:	48 89 45 38          	mov    %rax,0x38(%rbp)
    3dfb:	48 c7 45 20 00 00 00 	movq   $0x0,0x20(%rbp)
    3e02:	00 
    3e03:	48 c7 45 10 00 00 00 	movq   $0x0,0x10(%rbp)
    3e0a:	00 
    3e0b:	0f 31                	rdtsc  
    3e0d:	48 c1 e2 20          	shl    $0x20,%rdx
    3e11:	89 c3                	mov    %eax,%ebx
    3e13:	48 09 d3             	or     %rdx,%rbx
    3e16:	48 39 5c 24 30       	cmp    %rbx,0x30(%rsp)
    3e1b:	0f 87 ee 01 00 00    	ja     400f <restore_full+0x4ef>
    3e21:	48 2b 5c 24 30       	sub    0x30(%rsp),%rbx
    3e26:	0f 88 c5 01 00 00    	js     3ff1 <restore_full+0x4d1>
    3e2c:	66 0f ef c0          	pxor   %xmm0,%xmm0
    3e30:	f2 48 0f 2a c3       	cvtsi2sd %rbx,%xmm0
    3e35:	8b 7c 24 3c          	mov    0x3c(%rsp),%edi
    3e39:	48 83 c4 48          	add    $0x48,%rsp
    3e3d:	be 30 01 00 00       	mov    $0x130,%esi
    3e42:	5b                   	pop    %rbx
    3e43:	5d                   	pop    %rbp
    3e44:	41 5c                	pop    %r12
    3e46:	41 5d                	pop    %r13
    3e48:	41 5e                	pop    %r14
    3e4a:	41 5f                	pop    %r15
    3e4c:	e9 6f c4 00 00       	jmpq   102c0 <statistics_post_lp_data>
    3e51:	8d 41 ff             	lea    -0x1(%rcx),%eax
    3e54:	48 8d 04 85 04 00 00 	lea    0x4(,%rax,4),%rax
    3e5b:	00 
    3e5c:	48 89 44 24 28       	mov    %rax,0x28(%rsp)
    3e61:	eb 17                	jmp    3e7a <restore_full+0x35a>
    3e63:	0f 1f 44 00 00       	nopl   0x0(%rax,%rax,1)
    3e68:	48 83 44 24 08 04    	addq   $0x4,0x8(%rsp)
    3e6e:	48 8b 44 24 08       	mov    0x8(%rsp),%rax
    3e73:	48 3b 44 24 28       	cmp    0x28(%rsp),%rax
    3e78:	74 72                	je     3eec <restore_full+0x3cc>
    3e7a:	49 8b 44 24 38       	mov    0x38(%r12),%rax
    3e7f:	48 8b 54 24 08       	mov    0x8(%rsp),%rdx
    3e84:	8b 2c 10             	mov    (%rax,%rdx,1),%ebp
    3e87:	85 ed                	test   %ebp,%ebp
    3e89:	74 dd                	je     3e68 <restore_full+0x348>
    3e8b:	89 d0                	mov    %edx,%eax
    3e8d:	31 db                	xor    %ebx,%ebx
    3e8f:	c1 e0 03             	shl    $0x3,%eax
    3e92:	89 04 24             	mov    %eax,(%rsp)
    3e95:	89 e8                	mov    %ebp,%eax
    3e97:	4c 89 fd             	mov    %r15,%rbp
    3e9a:	4d 89 f7             	mov    %r14,%r15
    3e9d:	41 89 c6             	mov    %eax,%r14d
    3ea0:	eb 0e                	jmp    3eb0 <restore_full+0x390>
    3ea2:	66 0f 1f 44 00 00    	nopw   0x0(%rax,%rax,1)
    3ea8:	83 c3 01             	add    $0x1,%ebx
    3eab:	83 fb 20             	cmp    $0x20,%ebx
    3eae:	74 31                	je     3ee1 <restore_full+0x3c1>
    3eb0:	44 89 e8             	mov    %r13d,%eax
    3eb3:	89 d9                	mov    %ebx,%ecx
    3eb5:	d3 e0                	shl    %cl,%eax
    3eb7:	44 85 f0             	test   %r14d,%eax
    3eba:	74 ec                	je     3ea8 <restore_full+0x388>
    3ebc:	8b 04 24             	mov    (%rsp),%eax
    3ebf:	4c 89 fe             	mov    %r15,%rsi
    3ec2:	48 89 ea             	mov    %rbp,%rdx
    3ec5:	49 01 ef             	add    %rbp,%r15
    3ec8:	8d 3c 03             	lea    (%rbx,%rax,1),%edi
    3ecb:	83 c3 01             	add    $0x1,%ebx
    3ece:	48 0f af fd          	imul   %rbp,%rdi
    3ed2:	49 03 7c 24 48       	add    0x48(%r12),%rdi
    3ed7:	e8 14 da ff ff       	callq  18f0 <memcpy@plt>
    3edc:	83 fb 20             	cmp    $0x20,%ebx
    3edf:	75 cf                	jne    3eb0 <restore_full+0x390>
    3ee1:	4d 89 fe             	mov    %r15,%r14
    3ee4:	49 89 ef             	mov    %rbp,%r15
    3ee7:	e9 7c ff ff ff       	jmpq   3e68 <restore_full+0x348>
    3eec:	48 8b 15 6d 12 32 00 	mov    0x32126d(%rip),%rdx        # 325160 <recoverable_state>
    3ef3:	e9 1b fd ff ff       	jmpq   3c13 <restore_full+0xf3>
    3ef8:	48 63 c8             	movslq %eax,%rcx
    3efb:	4c 8b 75 40          	mov    0x40(%rbp),%r14
    3eff:	f2 0f 10 5d 38       	movsd  0x38(%rbp),%xmm3
    3f04:	41 bc 04 00 00 00    	mov    $0x4,%r12d
    3f0a:	48 8d 14 89          	lea    (%rcx,%rcx,4),%rdx
    3f0e:	48 8d 14 51          	lea    (%rcx,%rdx,2),%rdx
    3f12:	f2 0f 11 1c 24       	movsd  %xmm3,(%rsp)
    3f17:	4d 8d 2c d6          	lea    (%r14,%rdx,8),%r13
    3f1b:	8d 56 ff             	lea    -0x1(%rsi),%edx
    3f1e:	89 d6                	mov    %edx,%esi
    3f20:	29 c6                	sub    %eax,%esi
    3f22:	48 89 f0             	mov    %rsi,%rax
    3f25:	48 01 c8             	add    %rcx,%rax
    3f28:	48 8d 14 80          	lea    (%rax,%rax,4),%rdx
    3f2c:	48 8d 04 50          	lea    (%rax,%rdx,2),%rax
    3f30:	49 8d 5c c6 58       	lea    0x58(%r14,%rax,8),%rbx
    3f35:	eb 12                	jmp    3f49 <restore_full+0x429>
    3f37:	66 0f 1f 84 00 00 00 	nopw   0x0(%rax,%rax,1)
    3f3e:	00 00 
    3f40:	49 83 c5 58          	add    $0x58,%r13
    3f44:	49 39 dd             	cmp    %rbx,%r13
    3f47:	74 7c                	je     3fc5 <restore_full+0x4a5>
    3f49:	49 63 45 50          	movslq 0x50(%r13),%rax
    3f4d:	41 8b 55 20          	mov    0x20(%r13),%edx
    3f51:	41 c7 45 10 00 00 00 	movl   $0x0,0x10(%r13)
    3f58:	00 
    3f59:	f2 0f 10 0c 24       	movsd  (%rsp),%xmm1
    3f5e:	49 8b 7d 38          	mov    0x38(%r13),%rdi
    3f62:	41 c7 45 14 00 00 00 	movl   $0x0,0x14(%r13)
    3f69:	00 
    3f6a:	48 8d 0c 80          	lea    (%rax,%rax,4),%rcx
    3f6e:	41 c7 45 24 00 00 00 	movl   $0x0,0x24(%r13)
    3f75:	00 
    3f76:	48 8d 04 48          	lea    (%rax,%rcx,2),%rax
    3f7a:	41 c7 45 18 00 00 00 	movl   $0x0,0x18(%r13)
    3f81:	00 
    3f82:	f2 41 0f 11 4d 28    	movsd  %xmm1,0x28(%r13)
    3f88:	41 89 54 c6 54       	mov    %edx,0x54(%r14,%rax,8)
    3f8d:	49 83 65 08 fc       	andq   $0xfffffffffffffffc,0x8(%r13)
    3f92:	48 85 ff             	test   %rdi,%rdi
    3f95:	74 a9                	je     3f40 <restore_full+0x420>
    3f97:	41 8b 45 1c          	mov    0x1c(%r13),%eax
    3f9b:	83 f8 1f             	cmp    $0x1f,%eax
    3f9e:	7f 31                	jg     3fd1 <restore_full+0x4b1>
    3fa0:	c7 07 00 00 00 00    	movl   $0x0,(%rdi)
    3fa6:	45 31 ff             	xor    %r15d,%r15d
    3fa9:	49 8b 7d 40          	mov    0x40(%r13),%rdi
    3fad:	4a 8d 14 bd 04 00 00 	lea    0x4(,%r15,4),%rdx
    3fb4:	00 
    3fb5:	31 f6                	xor    %esi,%esi
    3fb7:	49 83 c5 58          	add    $0x58,%r13
    3fbb:	e8 90 d8 ff ff       	callq  1850 <memset@plt>
    3fc0:	49 39 dd             	cmp    %rbx,%r13
    3fc3:	75 84                	jne    3f49 <restore_full+0x429>
    3fc5:	8b 44 24 38          	mov    0x38(%rsp),%eax
    3fc9:	89 45 28             	mov    %eax,0x28(%rbp)
    3fcc:	e9 14 fe ff ff       	jmpq   3de5 <restore_full+0x2c5>
    3fd1:	c1 f8 05             	sar    $0x5,%eax
    3fd4:	8d 50 ff             	lea    -0x1(%rax),%edx
    3fd7:	85 c0                	test   %eax,%eax
    3fd9:	49 89 d7             	mov    %rdx,%r15
    3fdc:	48 8d 14 95 04 00 00 	lea    0x4(,%rdx,4),%rdx
    3fe3:	00 
    3fe4:	49 0f 4e d4          	cmovle %r12,%rdx
    3fe8:	31 f6                	xor    %esi,%esi
    3fea:	e8 61 d8 ff ff       	callq  1850 <memset@plt>
    3fef:	eb b8                	jmp    3fa9 <restore_full+0x489>
    3ff1:	48 89 d8             	mov    %rbx,%rax
    3ff4:	83 e3 01             	and    $0x1,%ebx
    3ff7:	66 0f ef c0          	pxor   %xmm0,%xmm0
    3ffb:	48 d1 e8             	shr    %rax
    3ffe:	48 09 d8             	or     %rbx,%rax
    4001:	f2 48 0f 2a c0       	cvtsi2sd %rax,%xmm0
    4006:	f2 0f 58 c0          	addsd  %xmm0,%xmm0
    400a:	e9 26 fe ff ff       	jmpq   3e35 <restore_full+0x315>
    400f:	48 8b 54 24 30       	mov    0x30(%rsp),%rdx
    4014:	48 89 d9             	mov    %rbx,%rcx
    4017:	bf 01 00 00 00       	mov    $0x1,%edi
    401c:	31 c0                	xor    %eax,%eax
    401e:	48 8d 35 9b 0d 01 00 	lea    0x10d9b(%rip),%rsi        # 14dc0 <__PRETTY_FUNCTION__.5886+0x5e0>
    4025:	e8 46 d9 ff ff       	callq  1970 <__printf_chk@plt>
    402a:	cc                   	int3   
    402b:	e9 f1 fd ff ff       	jmpq   3e21 <restore_full+0x301>

0000000000004030 <log_restore>:
    4030:	55                   	push   %rbp
    4031:	89 fd                	mov    %edi,%ebp
    4033:	53                   	push   %rbx
    4034:	48 89 f3             	mov    %rsi,%rbx
    4037:	be 2f 01 00 00       	mov    $0x12f,%esi
    403c:	48 83 ec 08          	sub    $0x8,%rsp
    4040:	f2 0f 10 05 78 0f 01 	movsd  0x10f78(%rip),%xmm0        # 14fc0 <__PRETTY_FUNCTION__.5886+0x7e0>
    4047:	00 
    4048:	e8 73 c2 00 00       	callq  102c0 <statistics_post_lp_data>
    404d:	48 8b 73 10          	mov    0x10(%rbx),%rsi
    4051:	48 83 c4 08          	add    $0x8,%rsp
    4055:	89 ef                	mov    %ebp,%edi
    4057:	5b                   	pop    %rbx
    4058:	5d                   	pop    %rbp
    4059:	e9 c2 fa ff ff       	jmpq   3b20 <restore_full>
    405e:	66 90                	xchg   %ax,%ax

0000000000004060 <log_delete>:
    4060:	48 85 ff             	test   %rdi,%rdi
    4063:	74 0b                	je     4070 <log_delete+0x10>
    4065:	e9 26 1c 00 00       	jmpq   5c90 <rsfree>
    406a:	66 0f 1f 44 00 00    	nopw   0x0(%rax,%rax,1)
    4070:	c3                   	retq   
    4071:	66 2e 0f 1f 84 00 00 	nopw   %cs:0x0(%rax,%rax,1)
    4078:	00 00 00 
    407b:	0f 1f 44 00 00       	nopl   0x0(%rax,%rax,1)

0000000000004080 <checkpoint_interval_recalculate>:
    4080:	55                   	push   %rbp
    4081:	53                   	push   %rbx
    4082:	89 fb                	mov    %edi,%ebx
    4084:	48 89 d8             	mov    %rbx,%rax
    4087:	48 89 dd             	mov    %rbx,%rbp
    408a:	48 c1 e0 09          	shl    $0x9,%rax
    408e:	48 83 ec 18          	sub    $0x18,%rsp
    4092:	48 03 05 d7 51 34 00 	add    0x3451d7(%rip),%rax        # 349270 <lp_stats>
    4099:	f2 0f 10 98 88 00 00 	movsd  0x88(%rax),%xmm3
    40a0:	00 
    40a1:	f2 0f 10 08          	movsd  (%rax),%xmm1
    40a5:	f2 0f 10 80 30 01 00 	movsd  0x130(%rax),%xmm0
    40ac:	00 
    40ad:	f2 0f 10 90 b0 00 00 	movsd  0xb0(%rax),%xmm2
    40b4:	00 
    40b5:	f2 0f 5e c3          	divsd  %xmm3,%xmm0
    40b9:	f2 0f 5e d1          	divsd  %xmm1,%xmm2
    40bd:	f2 0f 5e cb          	divsd  %xmm3,%xmm1
    40c1:	66 0f ef db          	pxor   %xmm3,%xmm3
    40c5:	f2 0f 5e c2          	divsd  %xmm2,%xmm0
    40c9:	f2 0f 10 15 ef 0e 01 	movsd  0x10eef(%rip),%xmm2        # 14fc0 <__PRETTY_FUNCTION__.5886+0x7e0>
    40d0:	00 
    40d1:	f2 0f 58 ca          	addsd  %xmm2,%xmm1
    40d5:	f2 0f 58 c0          	addsd  %xmm0,%xmm0
    40d9:	f2 0f 59 c1          	mulsd  %xmm1,%xmm0
    40dd:	66 0f 2e d8          	ucomisd %xmm0,%xmm3
    40e1:	66 0f 28 c8          	movapd %xmm0,%xmm1
    40e5:	f2 0f 51 c9          	sqrtsd %xmm1,%xmm1
    40e9:	77 4c                	ja     4137 <checkpoint_interval_recalculate+0xb7>
    40eb:	48 8b 05 96 8f 21 00 	mov    0x218f96(%rip),%rax        # 21d088 <LPS>
    40f2:	89 ef                	mov    %ebp,%edi
    40f4:	66 0f 28 c2          	movapd %xmm2,%xmm0
    40f8:	be 33 01 00 00       	mov    $0x133,%esi
    40fd:	48 8b 14 d8          	mov    (%rax,%rbx,8),%rdx
    4101:	f2 48 0f 2c c1       	cvttsd2si %xmm1,%rax
    4106:	89 42 14             	mov    %eax,0x14(%rdx)
    4109:	e8 b2 c1 00 00       	callq  102c0 <statistics_post_lp_data>
    410e:	66 0f ef c0          	pxor   %xmm0,%xmm0
    4112:	89 ef                	mov    %ebp,%edi
    4114:	be 34 01 00 00       	mov    $0x134,%esi
    4119:	48 8b 05 68 8f 21 00 	mov    0x218f68(%rip),%rax        # 21d088 <LPS>
    4120:	48 8b 04 d8          	mov    (%rax,%rbx,8),%rax
    4124:	8b 40 14             	mov    0x14(%rax),%eax
    4127:	48 83 c4 18          	add    $0x18,%rsp
    412b:	5b                   	pop    %rbx
    412c:	5d                   	pop    %rbp
    412d:	f2 48 0f 2a c0       	cvtsi2sd %rax,%xmm0
    4132:	e9 89 c1 00 00       	jmpq   102c0 <statistics_post_lp_data>
    4137:	f2 0f 11 4c 24 08    	movsd  %xmm1,0x8(%rsp)
    413d:	e8 3e d9 ff ff       	callq  1a80 <sqrt@plt>
    4142:	48 8b 05 77 0e 01 00 	mov    0x10e77(%rip),%rax        # 14fc0 <__PRETTY_FUNCTION__.5886+0x7e0>
    4149:	f2 0f 10 4c 24 08    	movsd  0x8(%rsp),%xmm1
    414f:	66 48 0f 6e d0       	movq   %rax,%xmm2
    4154:	eb 95                	jmp    40eb <checkpoint_interval_recalculate+0x6b>
    4156:	66 2e 0f 1f 84 00 00 	nopw   %cs:0x0(%rax,%rax,1)
    415d:	00 00 00 

0000000000004160 <LogState>:
    4160:	41 54                	push   %r12
    4162:	55                   	push   %rbp
    4163:	53                   	push   %rbx
    4164:	48 83 ec 40          	sub    $0x40,%rsp
    4168:	48 8b 15 19 8f 21 00 	mov    0x218f19(%rip),%rdx        # 21d088 <LPS>
    416f:	64 48 8b 04 25 28 00 	mov    %fs:0x28,%rax
    4176:	00 00 
    4178:	48 89 44 24 38       	mov    %rax,0x38(%rsp)
    417d:	31 c0                	xor    %eax,%eax
    417f:	89 f8                	mov    %edi,%eax
    4181:	48 8d 1c c5 00 00 00 	lea    0x0(,%rax,8),%rbx
    4188:	00 
    4189:	48 8b 04 c2          	mov    (%rdx,%rax,8),%rax
    418d:	f6 40 11 10          	testb  $0x10,0x11(%rax)
    4191:	0f 85 e1 00 00 00    	jne    4278 <LogState+0x118>
    4197:	8b 70 18             	mov    0x18(%rax),%esi
    419a:	44 0f b6 60 1c       	movzbl 0x1c(%rax),%r12d
    419f:	89 fd                	mov    %edi,%ebp
    41a1:	8d 56 01             	lea    0x1(%rsi),%edx
    41a4:	89 50 18             	mov    %edx,0x18(%rax)
    41a7:	45 84 e4             	test   %r12b,%r12b
    41aa:	75 2c                	jne    41d8 <LogState+0x78>
    41ac:	8b 0d 32 50 34 00    	mov    0x345032(%rip),%ecx        # 3491e4 <rootsim_config+0x24>
    41b2:	83 f9 01             	cmp    $0x1,%ecx
    41b5:	74 2c                	je     41e3 <LogState+0x83>
    41b7:	83 f9 02             	cmp    $0x2,%ecx
    41ba:	0f 85 c0 00 00 00    	jne    4280 <LogState+0x120>
    41c0:	3b 50 14             	cmp    0x14(%rax),%edx
    41c3:	0f 82 af 00 00 00    	jb     4278 <LogState+0x118>
    41c9:	c7 40 18 00 00 00 00 	movl   $0x0,0x18(%rax)
    41d0:	eb 11                	jmp    41e3 <LogState+0x83>
    41d2:	66 0f 1f 44 00 00    	nopw   0x0(%rax,%rax,1)
    41d8:	c6 40 1c 00          	movb   $0x0,0x1c(%rax)
    41dc:	c7 40 18 00 00 00 00 	movl   $0x0,0x18(%rax)
    41e3:	89 ef                	mov    %ebp,%edi
    41e5:	e8 16 f9 ff ff       	callq  3b00 <log_state>
    41ea:	48 03 1d 97 8e 21 00 	add    0x218e97(%rip),%rbx        # 21d088 <LPS>
    41f1:	66 0f ef c0          	pxor   %xmm0,%xmm0
    41f5:	48 89 44 24 10       	mov    %rax,0x10(%rsp)
    41fa:	48 8b 03             	mov    (%rbx),%rax
    41fd:	48 8b 50 30          	mov    0x30(%rax),%rdx
    4201:	48 85 d2             	test   %rdx,%rdx
    4204:	74 05                	je     420b <LogState+0xab>
    4206:	f2 0f 10 42 08       	movsd  0x8(%rdx),%xmm0
    420b:	f3 0f 7e 48 08       	movq   0x8(%rax),%xmm1
    4210:	f2 0f 11 04 24       	movsd  %xmm0,(%rsp)
    4215:	48 89 e1             	mov    %rsp,%rcx
    4218:	89 ef                	mov    %ebp,%edi
    421a:	66 0f 6e 40 48       	movd   0x48(%rax),%xmm0
    421f:	48 89 54 24 18       	mov    %rdx,0x18(%rsp)
    4224:	41 bc 01 00 00 00    	mov    $0x1,%r12d
    422a:	0f b7 50 10          	movzwl 0x10(%rax),%edx
    422e:	66 0f 6c c8          	punpcklqdq %xmm0,%xmm1
    4232:	0f 29 4c 24 20       	movaps %xmm1,0x20(%rsp)
    4237:	48 8b 40 20          	mov    0x20(%rax),%rax
    423b:	66 89 54 24 30       	mov    %dx,0x30(%rsp)
    4240:	ba 38 00 00 00       	mov    $0x38,%edx
    4245:	48 89 44 24 08       	mov    %rax,0x8(%rsp)
    424a:	48 8b 03             	mov    (%rbx),%rax
    424d:	48 8b 70 38          	mov    0x38(%rax),%rsi
    4251:	e8 3a 0b 00 00       	callq  4d90 <__list_insert_tail>
    4256:	48 8b 44 24 38       	mov    0x38(%rsp),%rax
    425b:	64 48 33 04 25 28 00 	xor    %fs:0x28,%rax
    4262:	00 00 
    4264:	75 2f                	jne    4295 <LogState+0x135>
    4266:	48 83 c4 40          	add    $0x40,%rsp
    426a:	44 89 e0             	mov    %r12d,%eax
    426d:	5b                   	pop    %rbx
    426e:	5d                   	pop    %rbp
    426f:	41 5c                	pop    %r12
    4271:	c3                   	retq   
    4272:	66 0f 1f 44 00 00    	nopw   0x0(%rax,%rax,1)
    4278:	45 31 e4             	xor    %r12d,%r12d
    427b:	eb d9                	jmp    4256 <LogState+0xf6>
    427d:	0f 1f 00             	nopl   (%rax)
    4280:	48 8d 35 61 0b 01 00 	lea    0x10b61(%rip),%rsi        # 14de8 <__PRETTY_FUNCTION__.5886+0x608>
    4287:	bf 01 00 00 00       	mov    $0x1,%edi
    428c:	31 c0                	xor    %eax,%eax
    428e:	e8 7d 30 00 00       	callq  7310 <rootsim_error>
    4293:	eb c1                	jmp    4256 <LogState+0xf6>
    4295:	e8 06 d5 ff ff       	callq  17a0 <__stack_chk_fail@plt>
    429a:	66 0f 1f 44 00 00    	nopw   0x0(%rax,%rax,1)

00000000000042a0 <RestoreState>:
    42a0:	55                   	push   %rbp
    42a1:	89 fd                	mov    %edi,%ebp
    42a3:	53                   	push   %rbx
    42a4:	89 ef                	mov    %ebp,%edi
    42a6:	48 89 f3             	mov    %rsi,%rbx
    42a9:	48 83 ec 08          	sub    $0x8,%rsp
    42ad:	e8 7e fd ff ff       	callq  4030 <log_restore>
    42b2:	48 8b 05 cf 8d 21 00 	mov    0x218dcf(%rip),%rax        # 21d088 <LPS>
    42b9:	48 8b 4b 08          	mov    0x8(%rbx),%rcx
    42bd:	48 8d 04 e8          	lea    (%rax,%rbp,8),%rax
    42c1:	48 8b 10             	mov    (%rax),%rdx
    42c4:	48 89 4a 20          	mov    %rcx,0x20(%rdx)
    42c8:	0f b7 53 30          	movzwl 0x30(%rbx),%edx
    42cc:	48 8b 00             	mov    (%rax),%rax
    42cf:	66 89 50 10          	mov    %dx,0x10(%rax)
    42d3:	48 8b 43 28          	mov    0x28(%rbx),%rax
    42d7:	48 83 c4 08          	add    $0x8,%rsp
    42db:	5b                   	pop    %rbx
    42dc:	5d                   	pop    %rbp
    42dd:	c3                   	retq   
    42de:	66 90                	xchg   %ax,%ax

00000000000042e0 <silent_execution>:
    42e0:	41 57                	push   %r15
    42e2:	49 89 d7             	mov    %rdx,%r15
    42e5:	41 56                	push   %r14
    42e7:	41 55                	push   %r13
    42e9:	41 54                	push   %r12
    42eb:	55                   	push   %rbp
    42ec:	53                   	push   %rbx
    42ed:	89 fb                	mov    %edi,%ebx
    42ef:	bf 10 00 00 00       	mov    $0x10,%edi
    42f4:	48 8d 04 dd 00 00 00 	lea    0x0(,%rbx,8),%rax
    42fb:	00 
    42fc:	48 89 dd             	mov    %rbx,%rbp
    42ff:	48 83 ec 48          	sub    $0x48,%rsp
    4303:	48 89 44 24 20       	mov    %rax,0x20(%rsp)
    4308:	48 8b 05 79 8d 21 00 	mov    0x218d79(%rip),%rax        # 21d088 <LPS>
    430f:	48 89 5c 24 38       	mov    %rbx,0x38(%rsp)
    4314:	48 8b 04 d8          	mov    (%rax,%rbx,8),%rax
    4318:	48 89 74 24 28       	mov    %rsi,0x28(%rsp)
    431d:	89 4c 24 30          	mov    %ecx,0x30(%rsp)
    4321:	44 0f b7 70 10       	movzwl 0x10(%rax),%r14d
    4326:	66 89 78 10          	mov    %di,0x10(%rax)
    432a:	f2 0f 11 44 24 18    	movsd  %xmm0,0x18(%rsp)
    4330:	44 89 f7             	mov    %r14d,%edi
    4333:	66 44 89 74 24 36    	mov    %r14w,0x36(%rsp)
    4339:	e8 e2 ec 00 00       	callq  13020 <check_silent_execution>
    433e:	48 8b 05 43 8d 21 00 	mov    0x218d43(%rip),%rax        # 21d088 <LPS>
    4345:	45 8b 6f 18          	mov    0x18(%r15),%r13d
    4349:	41 8b 57 14          	mov    0x14(%r15),%edx
    434d:	48 8b 04 d8          	mov    (%rax,%rbx,8),%rax
    4351:	49 8b 5f f0          	mov    -0x10(%r15),%rbx
    4355:	4c 89 78 78          	mov    %r15,0x78(%rax)
    4359:	48 85 db             	test   %rbx,%rbx
    435c:	0f 84 98 01 00 00    	je     44fa <silent_execution+0x21a>
    4362:	44 89 ef             	mov    %r13d,%edi
    4365:	45 31 e4             	xor    %r12d,%r12d
    4368:	49 89 dd             	mov    %rbx,%r13
    436b:	89 fb                	mov    %edi,%ebx
    436d:	e9 bd 00 00 00       	jmpq   442f <silent_execution+0x14f>
    4372:	66 0f 1f 44 00 00    	nopw   0x0(%rax,%rax,1)
    4378:	66 0f 2e c1          	ucomisd %xmm1,%xmm0
    437c:	7a 11                	jp     438f <silent_execution+0xaf>
    437e:	75 0f                	jne    438f <silent_execution+0xaf>
    4380:	41 0f b7 4d 20       	movzwl 0x20(%r13),%ecx
    4385:	3b 4c 24 30          	cmp    0x30(%rsp),%ecx
    4389:	0f 83 bf 00 00 00    	jae    444e <silent_execution+0x16e>
    438f:	4c 89 ff             	mov    %r15,%rdi
    4392:	89 54 24 0c          	mov    %edx,0xc(%rsp)
    4396:	e8 c5 89 00 00       	callq  cd60 <is_valid>
    439b:	8b 54 24 0c          	mov    0xc(%rsp),%edx
    439f:	84 c0                	test   %al,%al
    43a1:	0f 84 11 01 00 00    	je     44b8 <silent_execution+0x1d8>
    43a7:	41 8b 4d 24          	mov    0x24(%r13),%ecx
    43ab:	41 8b 75 28          	mov    0x28(%r13),%esi
    43af:	89 df                	mov    %ebx,%edi
    43b1:	41 83 c4 01          	add    $0x1,%r12d
    43b5:	e8 f6 ec 00 00       	callq  130b0 <check_epoch_and_frame>
    43ba:	4c 89 fa             	mov    %r15,%rdx
    43bd:	4c 89 fe             	mov    %r15,%rsi
    43c0:	44 89 f7             	mov    %r14d,%edi
    43c3:	e8 58 ed 00 00       	callq  13120 <check_events_state>
    43c8:	4c 89 ff             	mov    %r15,%rdi
    43cb:	e8 50 f7 00 00       	callq  13b20 <start_exposition_of_current_event>
    43d0:	48 83 ec 08          	sub    $0x8,%rsp
    43d4:	41 0f be 4d 23       	movsbl 0x23(%r13),%ecx
    43d9:	89 ef                	mov    %ebp,%edi
    43db:	41 0f be 75 22       	movsbl 0x22(%r13),%esi
    43e0:	f2 41 0f 10 45 18    	movsd  0x18(%r13),%xmm0
    43e6:	41 57                	push   %r15
    43e8:	49 8d 55 54          	lea    0x54(%r13),%rdx
    43ec:	4c 8b 44 24 38       	mov    0x38(%rsp),%r8
    43f1:	41 b9 01 00 00 00    	mov    $0x1,%r9d
    43f7:	e8 d4 42 00 00       	callq  86d0 <executeEvent>
    43fc:	4c 89 ff             	mov    %r15,%rdi
    43ff:	e8 bc f5 00 00       	callq  139c0 <end_exposition_of_current_event>
    4404:	48 8b 7c 24 30       	mov    0x30(%rsp),%rdi
    4409:	48 8b 05 78 8c 21 00 	mov    0x218c78(%rip),%rax        # 21d088 <LPS>
    4410:	41 8b 5d 28          	mov    0x28(%r13),%ebx
    4414:	41 8b 55 24          	mov    0x24(%r13),%edx
    4418:	48 8b 04 38          	mov    (%rax,%rdi,1),%rax
    441c:	4d 8b 6d 00          	mov    0x0(%r13),%r13
    4420:	4c 89 78 78          	mov    %r15,0x78(%rax)
    4424:	59                   	pop    %rcx
    4425:	5e                   	pop    %rsi
    4426:	4d 85 ed             	test   %r13,%r13
    4429:	0f 84 c1 00 00 00    	je     44f0 <silent_execution+0x210>
    442f:	f2 41 0f 10 45 18    	movsd  0x18(%r13),%xmm0
    4435:	f2 0f 10 4c 24 18    	movsd  0x18(%rsp),%xmm1
    443b:	4c 89 7c 24 10       	mov    %r15,0x10(%rsp)
    4440:	4d 8d 7d 10          	lea    0x10(%r13),%r15
    4444:	66 0f 2f c1          	comisd %xmm1,%xmm0
    4448:	0f 86 2a ff ff ff    	jbe    4378 <silent_execution+0x98>
    444e:	4c 8b 7c 24 10       	mov    0x10(%rsp),%r15
    4453:	48 c7 c2 c0 ff ff ff 	mov    $0xffffffffffffffc0,%rdx
    445a:	48 8b 70 28          	mov    0x28(%rax),%rsi
    445e:	89 ef                	mov    %ebp,%edi
    4460:	64 48 8b 0a          	mov    %fs:(%rdx),%rcx
    4464:	4c 89 fa             	mov    %r15,%rdx
    4467:	e8 e4 35 00 00       	callq  7a50 <insert_ordered_in_list>
    446c:	48 8b 05 15 8c 21 00 	mov    0x218c15(%rip),%rax        # 21d088 <LPS>
    4473:	48 8b 5c 24 38       	mov    0x38(%rsp),%rbx
    4478:	66 81 7c 24 36 00 01 	cmpw   $0x100,0x36(%rsp)
    447f:	48 8b 04 d8          	mov    (%rax,%rbx,8),%rax
    4483:	74 0c                	je     4491 <silent_execution+0x1b1>
    4485:	48 8b 5c 24 10       	mov    0x10(%rsp),%rbx
    448a:	48 89 98 80 00 00 00 	mov    %rbx,0x80(%rax)
    4491:	48 8b 5c 24 10       	mov    0x10(%rsp),%rbx
    4496:	48 89 58 78          	mov    %rbx,0x78(%rax)
    449a:	0f b7 5c 24 36       	movzwl 0x36(%rsp),%ebx
    449f:	66 89 58 10          	mov    %bx,0x10(%rax)
    44a3:	48 83 c4 48          	add    $0x48,%rsp
    44a7:	44 89 e0             	mov    %r12d,%eax
    44aa:	5b                   	pop    %rbx
    44ab:	5d                   	pop    %rbp
    44ac:	41 5c                	pop    %r12
    44ae:	41 5d                	pop    %r13
    44b0:	41 5e                	pop    %r14
    44b2:	41 5f                	pop    %r15
    44b4:	c3                   	retq   
    44b5:	0f 1f 00             	nopl   (%rax)
    44b8:	89 ee                	mov    %ebp,%esi
    44ba:	44 89 f7             	mov    %r14d,%edi
    44bd:	e8 9e eb 00 00       	callq  13060 <check_stop_rollback>
    44c2:	48 8b 05 bf 8b 21 00 	mov    0x218bbf(%rip),%rax        # 21d088 <LPS>
    44c9:	48 8b 5c 24 38       	mov    0x38(%rsp),%rbx
    44ce:	48 8b 04 d8          	mov    (%rax,%rbx,8),%rax
    44d2:	48 8b 90 88 00 00 00 	mov    0x88(%rax),%rdx
    44d9:	4c 8b 78 78          	mov    0x78(%rax),%r15
    44dd:	c7 42 40 04 00 00 00 	movl   $0x4,0x40(%rdx)
    44e4:	e9 6a ff ff ff       	jmpq   4453 <silent_execution+0x173>
    44e9:	0f 1f 80 00 00 00 00 	nopl   0x0(%rax)
    44f0:	4c 89 7c 24 10       	mov    %r15,0x10(%rsp)
    44f5:	e9 59 ff ff ff       	jmpq   4453 <silent_execution+0x173>
    44fa:	4c 89 7c 24 10       	mov    %r15,0x10(%rsp)
    44ff:	45 31 e4             	xor    %r12d,%r12d
    4502:	e9 4c ff ff ff       	jmpq   4453 <silent_execution+0x173>
    4507:	66 0f 1f 84 00 00 00 	nopw   0x0(%rax,%rax,1)
    450e:	00 00 

0000000000004510 <rollback>:
    4510:	41 57                	push   %r15
    4512:	66 0f 28 c8          	movapd %xmm0,%xmm1
    4516:	41 56                	push   %r14
    4518:	41 55                	push   %r13
    451a:	41 54                	push   %r12
    451c:	41 89 f4             	mov    %esi,%r12d
    451f:	55                   	push   %rbp
    4520:	53                   	push   %rbx
    4521:	89 fb                	mov    %edi,%ebx
    4523:	48 89 dd             	mov    %rbx,%rbp
    4526:	4c 8d 2c dd 00 00 00 	lea    0x0(,%rbx,8),%r13
    452d:	00 
    452e:	48 83 ec 28          	sub    $0x28,%rsp
    4532:	48 8b 05 4f 8b 21 00 	mov    0x218b4f(%rip),%rax        # 21d088 <LPS>
    4539:	48 8b 0c d8          	mov    (%rax,%rbx,8),%rcx
    453d:	0f b7 41 10          	movzwl 0x10(%rcx),%eax
    4541:	66 83 f8 08          	cmp    $0x8,%ax
    4545:	74 0a                	je     4551 <rollback+0x41>
    4547:	66 3d 00 01          	cmp    $0x100,%ax
    454b:	0f 85 17 03 00 00    	jne    4868 <rollback+0x358>
    4551:	48 c7 c0 78 5e ff ff 	mov    $0xffffffffffff5e78,%rax
    4558:	64 39 28             	cmp    %ebp,%fs:(%rax)
    455b:	0f 85 df 01 00 00    	jne    4740 <rollback+0x230>
    4561:	66 0f 2e 0d 7f 0a 01 	ucomisd 0x10a7f(%rip),%xmm1        # 14fe8 <__PRETTY_FUNCTION__.5886+0x808>
    4568:	00 
    4569:	7a 19                	jp     4584 <rollback+0x74>
    456b:	75 17                	jne    4584 <rollback+0x74>
    456d:	48 8b 41 30          	mov    0x30(%rcx),%rax
    4571:	48 8b 40 f0          	mov    -0x10(%rax),%rax
    4575:	48 85 c0             	test   %rax,%rax
    4578:	74 0a                	je     4584 <rollback+0x74>
    457a:	f2 0f 10 48 18       	movsd  0x18(%rax),%xmm1
    457f:	44 0f b7 60 20       	movzwl 0x20(%rax),%r12d
    4584:	0f 31                	rdtsc  
    4586:	89 44 24 14          	mov    %eax,0x14(%rsp)
    458a:	48 8b 41 38          	mov    0x38(%rcx),%rax
    458e:	89 54 24 18          	mov    %edx,0x18(%rsp)
    4592:	4c 8b 48 10          	mov    0x10(%rax),%r9
    4596:	4d 85 c9             	test   %r9,%r9
    4599:	0f 84 48 03 00 00    	je     48e7 <rollback+0x3d7>
    459f:	4d 8d 71 10          	lea    0x10(%r9),%r14
    45a3:	eb 30                	jmp    45d5 <rollback+0xc5>
    45a5:	0f 1f 00             	nopl   (%rax)
    45a8:	48 8b 15 d9 8a 21 00 	mov    0x218ad9(%rip),%rdx        # 21d088 <LPS>
    45af:	49 8b 46 f8          	mov    -0x8(%r14),%rax
    45b3:	4a 8b 14 2a          	mov    (%rdx,%r13,1),%rdx
    45b7:	0f b7 52 10          	movzwl 0x10(%rdx),%edx
    45bb:	48 85 c0             	test   %rax,%rax
    45be:	0f 84 1c 01 00 00    	je     46e0 <rollback+0x1d0>
    45c4:	4c 8d 78 10          	lea    0x10(%rax),%r15
    45c8:	66 83 fa 08          	cmp    $0x8,%dx
    45cc:	0f 84 34 03 00 00    	je     4906 <rollback+0x3f6>
    45d2:	4d 89 fe             	mov    %r15,%r14
    45d5:	f2 41 0f 10 06       	movsd  (%r14),%xmm0
    45da:	66 0f 2f c1          	comisd %xmm1,%xmm0
    45de:	73 c8                	jae    45a8 <rollback+0x98>
    45e0:	49 8b 7e 18          	mov    0x18(%r14),%rdi
    45e4:	f2 0f 11 0c 24       	movsd  %xmm1,(%rsp)
    45e9:	e8 72 87 00 00       	callq  cd60 <is_valid>
    45ee:	f2 0f 10 0c 24       	movsd  (%rsp),%xmm1
    45f3:	84 c0                	test   %al,%al
    45f5:	74 b1                	je     45a8 <rollback+0x98>
    45f7:	4c 89 f6             	mov    %r14,%rsi
    45fa:	89 ef                	mov    %ebp,%edi
    45fc:	f2 0f 11 0c 24       	movsd  %xmm1,(%rsp)
    4601:	e8 2a fa ff ff       	callq  4030 <log_restore>
    4606:	48 8b 15 7b 8a 21 00 	mov    0x218a7b(%rip),%rdx        # 21d088 <LPS>
    460d:	49 8b 4e 08          	mov    0x8(%r14),%rcx
    4611:	4d 8b 7e 18          	mov    0x18(%r14),%r15
    4615:	f2 0f 10 0c 24       	movsd  (%rsp),%xmm1
    461a:	4c 01 ea             	add    %r13,%rdx
    461d:	48 8b 02             	mov    (%rdx),%rax
    4620:	48 89 48 20          	mov    %rcx,0x20(%rax)
    4624:	49 8b 46 28          	mov    0x28(%r14),%rax
    4628:	41 8b 4f 18          	mov    0x18(%r15),%ecx
    462c:	48 83 e8 01          	sub    $0x1,%rax
    4630:	48 39 c1             	cmp    %rax,%rcx
    4633:	49 89 c8             	mov    %rcx,%r8
    4636:	0f 85 3c 01 00 00    	jne    4778 <rollback+0x268>
    463c:	48 8b 02             	mov    (%rdx),%rax
    463f:	66 0f 28 c1          	movapd %xmm1,%xmm0
    4643:	4c 89 fa             	mov    %r15,%rdx
    4646:	44 89 e1             	mov    %r12d,%ecx
    4649:	89 ef                	mov    %ebp,%edi
    464b:	f2 0f 11 4c 24 08    	movsd  %xmm1,0x8(%rsp)
    4651:	48 8b 70 20          	mov    0x20(%rax),%rsi
    4655:	e8 86 fc ff ff       	callq  42e0 <silent_execution>
    465a:	66 0f ef c0          	pxor   %xmm0,%xmm0
    465e:	be 68 00 00 00       	mov    $0x68,%esi
    4663:	89 ef                	mov    %ebp,%edi
    4665:	41 89 c7             	mov    %eax,%r15d
    4668:	f2 49 0f 2a c7       	cvtsi2sd %r15,%xmm0
    466d:	4d 89 fc             	mov    %r15,%r12
    4670:	f2 0f 11 04 24       	movsd  %xmm0,(%rsp)
    4675:	e8 46 bc 00 00       	callq  102c0 <statistics_post_lp_data>
    467a:	f2 0f 10 04 24       	movsd  (%rsp),%xmm0
    467f:	48 8b 05 02 8a 21 00 	mov    0x218a02(%rip),%rax        # 21d088 <LPS>
    4686:	f2 0f 10 4c 24 08    	movsd  0x8(%rsp),%xmm1
    468c:	48 8b 14 d8          	mov    (%rax,%rbx,8),%rdx
    4690:	0f b7 42 10          	movzwl 0x10(%rdx),%eax
    4694:	66 3d 00 01          	cmp    $0x100,%ax
    4698:	40 0f 94 c6          	sete   %sil
    469c:	0f 84 0e 01 00 00    	je     47b0 <rollback+0x2a0>
    46a2:	66 0f 2e 0d 3e 09 01 	ucomisd 0x1093e(%rip),%xmm1        # 14fe8 <__PRETTY_FUNCTION__.5886+0x808>
    46a9:	00 
    46aa:	0f 9b c1             	setnp  %cl
    46ad:	0f 45 ce             	cmovne %esi,%ecx
    46b0:	84 c9                	test   %cl,%cl
    46b2:	0f 85 f8 00 00 00    	jne    47b0 <rollback+0x2a0>
    46b8:	66 83 f8 08          	cmp    $0x8,%ax
    46bc:	0f 84 1d 01 00 00    	je     47df <rollback+0x2cf>
    46c2:	41 0f b7 46 30       	movzwl 0x30(%r14),%eax
    46c7:	66 89 42 10          	mov    %ax,0x10(%rdx)
    46cb:	48 83 c4 28          	add    $0x28,%rsp
    46cf:	5b                   	pop    %rbx
    46d0:	5d                   	pop    %rbp
    46d1:	41 5c                	pop    %r12
    46d3:	41 5d                	pop    %r13
    46d5:	41 5e                	pop    %r14
    46d7:	41 5f                	pop    %r15
    46d9:	c3                   	retq   
    46da:	66 0f 1f 44 00 00    	nopw   0x0(%rax,%rax,1)
    46e0:	66 83 fa 08          	cmp    $0x8,%dx
    46e4:	75 3a                	jne    4720 <rollback+0x210>
    46e6:	49 8b 7e 10          	mov    0x10(%r14),%rdi
    46ea:	e8 71 f9 ff ff       	callq  4060 <log_delete>
    46ef:	b8 ef be be ba       	mov    $0xbabebeef,%eax
    46f4:	45 31 c0             	xor    %r8d,%r8d
    46f7:	4c 89 f1             	mov    %r14,%rcx
    46fa:	49 89 46 18          	mov    %rax,0x18(%r14)
    46fe:	48 8b 05 83 89 21 00 	mov    0x218983(%rip),%rax        # 21d088 <LPS>
    4705:	ba 38 00 00 00       	mov    $0x38,%edx
    470a:	89 ef                	mov    %ebp,%edi
    470c:	48 8b 04 d8          	mov    (%rax,%rbx,8),%rax
    4710:	48 8b 70 38          	mov    0x38(%rax),%rsi
    4714:	e8 37 0b 00 00       	callq  5250 <__list_extract_by_content>
    4719:	0f 1f 80 00 00 00 00 	nopl   0x0(%rax)
    4720:	48 8d 0d 91 ff 00 00 	lea    0xff91(%rip),%rcx        # 146b8 <__PRETTY_FUNCTION__.6038>
    4727:	ba 4e 02 00 00       	mov    $0x24e,%edx
    472c:	48 8d 35 67 01 01 00 	lea    0x10167(%rip),%rsi        # 1489a <__PRETTY_FUNCTION__.5886+0xba>
    4733:	48 8d 3d 6b 01 01 00 	lea    0x1016b(%rip),%rdi        # 148a5 <__PRETTY_FUNCTION__.5886+0xc5>
    473a:	e8 e1 d0 ff ff       	callq  1820 <__assert_fail@plt>
    473f:	90                   	nop
    4740:	48 8d 3d 21 07 01 00 	lea    0x10721(%rip),%rdi        # 14e68 <__PRETTY_FUNCTION__.5886+0x688>
    4747:	f2 0f 11 0c 24       	movsd  %xmm1,(%rsp)
    474c:	e8 ef cf ff ff       	callq  1740 <puts@plt>
    4751:	cc                   	int3   
    4752:	f2 0f 10 0c 24       	movsd  (%rsp),%xmm1
    4757:	66 0f 2e 0d 89 08 01 	ucomisd 0x10889(%rip),%xmm1        # 14fe8 <__PRETTY_FUNCTION__.5886+0x808>
    475e:	00 
    475f:	48 8b 05 22 89 21 00 	mov    0x218922(%rip),%rax        # 21d088 <LPS>
    4766:	48 8b 0c d8          	mov    (%rax,%rbx,8),%rcx
    476a:	0f 8b fb fd ff ff    	jnp    456b <rollback+0x5b>
    4770:	e9 0f fe ff ff       	jmpq   4584 <rollback+0x74>
    4775:	0f 1f 00             	nopl   (%rax)
    4778:	48 8b 02             	mov    (%rdx),%rax
    477b:	48 8d 35 1e 07 01 00 	lea    0x1071e(%rip),%rsi        # 14ea0 <__PRETTY_FUNCTION__.5886+0x6c0>
    4782:	44 89 c2             	mov    %r8d,%edx
    4785:	bf 01 00 00 00       	mov    $0x1,%edi
    478a:	f2 0f 11 0c 24       	movsd  %xmm1,(%rsp)
    478f:	8b 48 48             	mov    0x48(%rax),%ecx
    4792:	31 c0                	xor    %eax,%eax
    4794:	e8 d7 d1 ff ff       	callq  1970 <__printf_chk@plt>
    4799:	cc                   	int3   
    479a:	48 8b 15 e7 88 21 00 	mov    0x2188e7(%rip),%rdx        # 21d088 <LPS>
    47a1:	f2 0f 10 0c 24       	movsd  (%rsp),%xmm1
    47a6:	4c 01 ea             	add    %r13,%rdx
    47a9:	e9 8e fe ff ff       	jmpq   463c <rollback+0x12c>
    47ae:	66 90                	xchg   %ax,%ax
    47b0:	be 71 00 00 00       	mov    $0x71,%esi
    47b5:	89 ef                	mov    %ebp,%edi
    47b7:	f2 0f 11 0c 24       	movsd  %xmm1,(%rsp)
    47bc:	e8 ff ba 00 00       	callq  102c0 <statistics_post_lp_data>
    47c1:	48 8b 05 c0 88 21 00 	mov    0x2188c0(%rip),%rax        # 21d088 <LPS>
    47c8:	f2 0f 10 0c 24       	movsd  (%rsp),%xmm1
    47cd:	48 8b 14 d8          	mov    (%rax,%rbx,8),%rdx
    47d1:	0f b7 42 10          	movzwl 0x10(%rdx),%eax
    47d5:	66 83 f8 08          	cmp    $0x8,%ax
    47d9:	0f 85 e3 fe ff ff    	jne    46c2 <rollback+0x1b2>
    47df:	4d 69 ff 1f 85 eb 51 	imul   $0x51eb851f,%r15,%r15
    47e6:	41 8b 76 28          	mov    0x28(%r14),%esi
    47ea:	f2 0f 10 15 f6 07 01 	movsd  0x107f6(%rip),%xmm2        # 14fe8 <__PRETTY_FUNCTION__.5886+0x808>
    47f1:	00 
    47f2:	83 42 4c 01          	addl   $0x1,0x4c(%rdx)
    47f6:	8b 4a 48             	mov    0x48(%rdx),%ecx
    47f9:	44 01 e6             	add    %r12d,%esi
    47fc:	49 c1 ef 24          	shr    $0x24,%r15
    4800:	89 72 48             	mov    %esi,0x48(%rdx)
    4803:	41 6b c7 32          	imul   $0x32,%r15d,%eax
    4807:	41 29 c4             	sub    %eax,%r12d
    480a:	66 0f 2f d1          	comisd %xmm1,%xmm2
    480e:	44 89 62 18          	mov    %r12d,0x18(%rdx)
    4812:	0f 87 b3 00 00 00    	ja     48cb <rollback+0x3bb>
    4818:	4c 8b 6c 24 18       	mov    0x18(%rsp),%r13
    481d:	8b 44 24 14          	mov    0x14(%rsp),%eax
    4821:	49 c1 e5 20          	shl    $0x20,%r13
    4825:	49 09 c5             	or     %rax,%r13
    4828:	0f 31                	rdtsc  
    482a:	48 c1 e2 20          	shl    $0x20,%rdx
    482e:	41 89 c4             	mov    %eax,%r12d
    4831:	49 09 d4             	or     %rdx,%r12
    4834:	4d 39 e5             	cmp    %r12,%r13
    4837:	77 73                	ja     48ac <rollback+0x39c>
    4839:	4d 29 ec             	sub    %r13,%r12
    483c:	78 52                	js     4890 <rollback+0x380>
    483e:	66 0f ef c0          	pxor   %xmm0,%xmm0
    4842:	f2 49 0f 2a c4       	cvtsi2sd %r12,%xmm0
    4847:	be c9 00 00 00       	mov    $0xc9,%esi
    484c:	89 ef                	mov    %ebp,%edi
    484e:	e8 6d ba 00 00       	callq  102c0 <statistics_post_lp_data>
    4853:	48 8b 05 2e 88 21 00 	mov    0x21882e(%rip),%rax        # 21d088 <LPS>
    485a:	48 8b 14 d8          	mov    (%rax,%rbx,8),%rdx
    485e:	e9 5f fe ff ff       	jmpq   46c2 <rollback+0x1b2>
    4863:	0f 1f 44 00 00       	nopl   0x0(%rax,%rax,1)
    4868:	48 83 c4 28          	add    $0x28,%rsp
    486c:	89 da                	mov    %ebx,%edx
    486e:	48 8d 35 9b 05 01 00 	lea    0x1059b(%rip),%rsi        # 14e10 <__PRETTY_FUNCTION__.5886+0x630>
    4875:	31 ff                	xor    %edi,%edi
    4877:	5b                   	pop    %rbx
    4878:	31 c0                	xor    %eax,%eax
    487a:	5d                   	pop    %rbp
    487b:	41 5c                	pop    %r12
    487d:	41 5d                	pop    %r13
    487f:	41 5e                	pop    %r14
    4881:	41 5f                	pop    %r15
    4883:	e9 88 2a 00 00       	jmpq   7310 <rootsim_error>
    4888:	0f 1f 84 00 00 00 00 	nopl   0x0(%rax,%rax,1)
    488f:	00 
    4890:	4c 89 e0             	mov    %r12,%rax
    4893:	41 83 e4 01          	and    $0x1,%r12d
    4897:	66 0f ef c0          	pxor   %xmm0,%xmm0
    489b:	48 d1 e8             	shr    %rax
    489e:	4c 09 e0             	or     %r12,%rax
    48a1:	f2 48 0f 2a c0       	cvtsi2sd %rax,%xmm0
    48a6:	f2 0f 58 c0          	addsd  %xmm0,%xmm0
    48aa:	eb 9b                	jmp    4847 <rollback+0x337>
    48ac:	4c 89 e1             	mov    %r12,%rcx
    48af:	4c 89 ea             	mov    %r13,%rdx
    48b2:	48 8d 35 07 05 01 00 	lea    0x10507(%rip),%rsi        # 14dc0 <__PRETTY_FUNCTION__.5886+0x5e0>
    48b9:	31 c0                	xor    %eax,%eax
    48bb:	bf 01 00 00 00       	mov    $0x1,%edi
    48c0:	e8 ab d0 ff ff       	callq  1970 <__printf_chk@plt>
    48c5:	cc                   	int3   
    48c6:	e9 6e ff ff ff       	jmpq   4839 <rollback+0x329>
    48cb:	29 f1                	sub    %esi,%ecx
    48cd:	66 0f ef c0          	pxor   %xmm0,%xmm0
    48d1:	be 32 01 00 00       	mov    $0x132,%esi
    48d6:	89 ef                	mov    %ebp,%edi
    48d8:	f2 48 0f 2a c1       	cvtsi2sd %rcx,%xmm0
    48dd:	e8 de b9 00 00       	callq  102c0 <statistics_post_lp_data>
    48e2:	e9 31 ff ff ff       	jmpq   4818 <rollback+0x308>
    48e7:	48 8d 0d ca fd 00 00 	lea    0xfdca(%rip),%rcx        # 146b8 <__PRETTY_FUNCTION__.6038>
    48ee:	ba 42 02 00 00       	mov    $0x242,%edx
    48f3:	48 8d 35 a0 ff 00 00 	lea    0xffa0(%rip),%rsi        # 1489a <__PRETTY_FUNCTION__.5886+0xba>
    48fa:	48 8d 3d a4 ff 00 00 	lea    0xffa4(%rip),%rdi        # 148a5 <__PRETTY_FUNCTION__.5886+0xc5>
    4901:	e8 1a cf ff ff       	callq  1820 <__assert_fail@plt>
    4906:	49 8b 7e 10          	mov    0x10(%r14),%rdi
    490a:	f2 0f 11 0c 24       	movsd  %xmm1,(%rsp)
    490f:	e8 4c f7 ff ff       	callq  4060 <log_delete>
    4914:	b8 ef be be ba       	mov    $0xbabebeef,%eax
    4919:	45 31 c0             	xor    %r8d,%r8d
    491c:	4c 89 f1             	mov    %r14,%rcx
    491f:	49 89 46 18          	mov    %rax,0x18(%r14)
    4923:	48 8b 05 5e 87 21 00 	mov    0x21875e(%rip),%rax        # 21d088 <LPS>
    492a:	ba 38 00 00 00       	mov    $0x38,%edx
    492f:	89 ef                	mov    %ebp,%edi
    4931:	4a 8b 04 28          	mov    (%rax,%r13,1),%rax
    4935:	48 8b 70 38          	mov    0x38(%rax),%rsi
    4939:	e8 12 09 00 00       	callq  5250 <__list_extract_by_content>
    493e:	f2 0f 10 0c 24       	movsd  (%rsp),%xmm1
    4943:	e9 8a fc ff ff       	jmpq   45d2 <rollback+0xc2>
    4948:	0f 1f 84 00 00 00 00 	nopl   0x0(%rax,%rax,1)
    494f:	00 

0000000000004950 <find_time_barrier>:
    4950:	48 8b 05 31 87 21 00 	mov    0x218731(%rip),%rax        # 21d088 <LPS>
    4957:	48 63 ff             	movslq %edi,%rdi
    495a:	66 0f 2e 05 7e 06 01 	ucomisd 0x1067e(%rip),%xmm0        # 14fe0 <__PRETTY_FUNCTION__.5886+0x800>
    4961:	00 
    4962:	48 8b 04 f8          	mov    (%rax,%rdi,8),%rax
    4966:	48 8b 50 38          	mov    0x38(%rax),%rdx
    496a:	7b 3c                	jnp    49a8 <find_time_barrier+0x58>
    496c:	48 8b 42 10          	mov    0x10(%rdx),%rax
    4970:	48 85 c0             	test   %rax,%rax
    4973:	75 1c                	jne    4991 <find_time_barrier+0x41>
    4975:	48 8b 42 08          	mov    0x8(%rdx),%rax
    4979:	48 8d 50 10          	lea    0x10(%rax),%rdx
    497d:	48 85 c0             	test   %rax,%rax
    4980:	48 0f 45 c2          	cmovne %rdx,%rax
    4984:	c3                   	retq   
    4985:	0f 1f 00             	nopl   (%rax)
    4988:	48 8b 40 f8          	mov    -0x8(%rax),%rax
    498c:	48 85 c0             	test   %rax,%rax
    498f:	74 e4                	je     4975 <find_time_barrier+0x25>
    4991:	f2 0f 10 48 10       	movsd  0x10(%rax),%xmm1
    4996:	48 83 c0 10          	add    $0x10,%rax
    499a:	66 0f 2f c8          	comisd %xmm0,%xmm1
    499e:	73 e8                	jae    4988 <find_time_barrier+0x38>
    49a0:	c3                   	retq   
    49a1:	0f 1f 80 00 00 00 00 	nopl   0x0(%rax)
    49a8:	75 c2                	jne    496c <find_time_barrier+0x1c>
    49aa:	48 8b 42 08          	mov    0x8(%rdx),%rax
    49ae:	48 8d 50 10          	lea    0x10(%rax),%rdx
    49b2:	48 85 c0             	test   %rax,%rax
    49b5:	48 0f 45 c2          	cmovne %rdx,%rax
    49b9:	c3                   	retq   
    49ba:	66 0f 1f 44 00 00    	nopw   0x0(%rax,%rax,1)

00000000000049c0 <ParallelSetState>:
    49c0:	48 c7 c0 78 5e ff ff 	mov    $0xffffffffffff5e78,%rax
    49c7:	64 8b 10             	mov    %fs:(%rax),%edx
    49ca:	48 8b 05 b7 86 21 00 	mov    0x2186b7(%rip),%rax        # 21d088 <LPS>
    49d1:	48 8b 04 d0          	mov    (%rax,%rdx,8),%rax
    49d5:	48 89 78 20          	mov    %rdi,0x20(%rax)
    49d9:	c3                   	retq   
    49da:	66 0f 1f 44 00 00    	nopw   0x0(%rax,%rax,1)

00000000000049e0 <set_checkpoint_mode>:
    49e0:	89 3d fe 47 34 00    	mov    %edi,0x3447fe(%rip)        # 3491e4 <rootsim_config+0x24>
    49e6:	c3                   	retq   
    49e7:	66 0f 1f 84 00 00 00 	nopw   0x0(%rax,%rax,1)
    49ee:	00 00 

00000000000049f0 <set_checkpoint_period>:
    49f0:	48 8b 05 91 86 21 00 	mov    0x218691(%rip),%rax        # 21d088 <LPS>
    49f7:	89 ff                	mov    %edi,%edi
    49f9:	48 8b 04 f8          	mov    (%rax,%rdi,8),%rax
    49fd:	89 70 14             	mov    %esi,0x14(%rax)
    4a00:	c3                   	retq   
    4a01:	0f 1f 44 00 00       	nopl   0x0(%rax,%rax,1)
    4a06:	66 2e 0f 1f 84 00 00 	nopw   %cs:0x0(%rax,%rax,1)
    4a0d:	00 00 00 

0000000000004a10 <force_LP_checkpoint>:
    4a10:	48 8b 05 71 86 21 00 	mov    0x218671(%rip),%rax        # 21d088 <LPS>
    4a17:	89 ff                	mov    %edi,%edi
    4a19:	48 8b 04 f8          	mov    (%rax,%rdi,8),%rax
    4a1d:	c6 40 1c 01          	movb   $0x1,0x1c(%rax)
    4a21:	c3                   	retq   
    4a22:	0f 1f 40 00          	nopl   0x0(%rax)
    4a26:	66 2e 0f 1f 84 00 00 	nopw   %cs:0x0(%rax,%rax,1)
    4a2d:	00 00 00 

0000000000004a30 <clean_checkpoint>:
    4a30:	41 57                	push   %r15
    4a32:	89 f8                	mov    %edi,%eax
    4a34:	41 56                	push   %r14
    4a36:	41 55                	push   %r13
    4a38:	41 54                	push   %r12
    4a3a:	55                   	push   %rbp
    4a3b:	48 89 c5             	mov    %rax,%rbp
    4a3e:	53                   	push   %rbx
    4a3f:	48 8d 1c c5 00 00 00 	lea    0x0(,%rax,8),%rbx
    4a46:	00 
    4a47:	48 83 ec 18          	sub    $0x18,%rsp
    4a4b:	48 8b 0d 36 86 21 00 	mov    0x218636(%rip),%rcx        # 21d088 <LPS>
    4a52:	48 89 44 24 08       	mov    %rax,0x8(%rsp)
    4a57:	48 8b 04 c1          	mov    (%rcx,%rax,8),%rax
    4a5b:	48 8b 70 28          	mov    0x28(%rax),%rsi
    4a5f:	48 8b 40 38          	mov    0x38(%rax),%rax
    4a63:	4c 8b 6e 08          	mov    0x8(%rsi),%r13
    4a67:	48 8b 40 10          	mov    0x10(%rax),%rax
    4a6b:	49 8d 55 10          	lea    0x10(%r13),%rdx
    4a6f:	4d 85 ed             	test   %r13,%r13
    4a72:	4c 0f 45 ea          	cmovne %rdx,%r13
    4a76:	48 85 c0             	test   %rax,%rax
    4a79:	75 12                	jne    4a8d <clean_checkpoint+0x5d>
    4a7b:	e9 ae 01 00 00       	jmpq   4c2e <clean_checkpoint+0x1fe>
    4a80:	48 8b 42 f8          	mov    -0x8(%rdx),%rax
    4a84:	48 85 c0             	test   %rax,%rax
    4a87:	0f 84 3f 01 00 00    	je     4bcc <clean_checkpoint+0x19c>
    4a8d:	48 8d 50 10          	lea    0x10(%rax),%rdx
    4a91:	48 8b 40 28          	mov    0x28(%rax),%rax
    4a95:	f2 0f 10 48 08       	movsd  0x8(%rax),%xmm1
    4a9a:	66 0f 2f c8          	comisd %xmm0,%xmm1
    4a9e:	73 e0                	jae    4a80 <clean_checkpoint+0x50>
    4aa0:	48 8b 42 f8          	mov    -0x8(%rdx),%rax
    4aa4:	48 85 c0             	test   %rax,%rax
    4aa7:	0f 84 1f 01 00 00    	je     4bcc <clean_checkpoint+0x19c>
    4aad:	48 8b 50 28          	mov    0x28(%rax),%rdx
    4ab1:	48 8b 7a f8          	mov    -0x8(%rdx),%rdi
    4ab5:	48 89 3c 24          	mov    %rdi,(%rsp)
    4ab9:	48 85 ff             	test   %rdi,%rdi
    4abc:	0f 84 2e 01 00 00    	je     4bf0 <clean_checkpoint+0x1c0>
    4ac2:	48 8d 7a f0          	lea    -0x10(%rdx),%rdi
    4ac6:	48 83 04 24 10       	addq   $0x10,(%rsp)
    4acb:	48 89 7e 08          	mov    %rdi,0x8(%rsi)
    4acf:	48 c7 42 f8 00 00 00 	movq   $0x0,-0x8(%rdx)
    4ad6:	00 
    4ad7:	48 8b 40 08          	mov    0x8(%rax),%rax
    4adb:	48 85 c0             	test   %rax,%rax
    4ade:	0f 84 9d 00 00 00    	je     4b81 <clean_checkpoint+0x151>
    4ae4:	4c 8b 70 08          	mov    0x8(%rax),%r14
    4ae8:	48 8b 78 20          	mov    0x20(%rax),%rdi
    4aec:	4c 8d 60 10          	lea    0x10(%rax),%r12
    4af0:	4d 85 f6             	test   %r14,%r14
    4af3:	74 49                	je     4b3e <clean_checkpoint+0x10e>
    4af5:	0f 1f 00             	nopl   (%rax)
    4af8:	e8 63 f5 ff ff       	callq  4060 <log_delete>
    4afd:	4d 89 e7             	mov    %r12,%r15
    4b00:	b8 ef be be ba       	mov    $0xbabebeef,%eax
    4b05:	89 ef                	mov    %ebp,%edi
    4b07:	49 89 47 18          	mov    %rax,0x18(%r15)
    4b0b:	45 31 c0             	xor    %r8d,%r8d
    4b0e:	4c 89 f9             	mov    %r15,%rcx
    4b11:	ba 38 00 00 00       	mov    $0x38,%edx
    4b16:	48 8b 05 6b 85 21 00 	mov    0x21856b(%rip),%rax        # 21d088 <LPS>
    4b1d:	4d 8d 66 10          	lea    0x10(%r14),%r12
    4b21:	48 8b 04 18          	mov    (%rax,%rbx,1),%rax
    4b25:	48 8b 70 38          	mov    0x38(%rax),%rsi
    4b29:	e8 22 07 00 00       	callq  5250 <__list_extract_by_content>
    4b2e:	4c 89 f0             	mov    %r14,%rax
    4b31:	4d 8b 76 08          	mov    0x8(%r14),%r14
    4b35:	48 8b 78 20          	mov    0x20(%rax),%rdi
    4b39:	4d 85 f6             	test   %r14,%r14
    4b3c:	75 ba                	jne    4af8 <clean_checkpoint+0xc8>
    4b3e:	e8 1d f5 ff ff       	callq  4060 <log_delete>
    4b43:	b8 ef be be ba       	mov    $0xbabebeef,%eax
    4b48:	45 31 c0             	xor    %r8d,%r8d
    4b4b:	4c 89 e1             	mov    %r12,%rcx
    4b4e:	49 89 44 24 18       	mov    %rax,0x18(%r12)
    4b53:	48 8b 5c 24 08       	mov    0x8(%rsp),%rbx
    4b58:	ba 38 00 00 00       	mov    $0x38,%edx
    4b5d:	89 ef                	mov    %ebp,%edi
    4b5f:	48 8b 05 22 85 21 00 	mov    0x218522(%rip),%rax        # 21d088 <LPS>
    4b66:	48 8b 04 d8          	mov    (%rax,%rbx,8),%rax
    4b6a:	48 8b 70 38          	mov    0x38(%rax),%rsi
    4b6e:	e8 dd 06 00 00       	callq  5250 <__list_extract_by_content>
    4b73:	48 83 3c 24 00       	cmpq   $0x0,(%rsp)
    4b78:	48 8b 0d 09 85 21 00 	mov    0x218509(%rip),%rcx        # 21d088 <LPS>
    4b7f:	74 37                	je     4bb8 <clean_checkpoint+0x188>
    4b81:	48 8b 04 24          	mov    (%rsp),%rax
    4b85:	49 8d 75 f0          	lea    -0x10(%r13),%rsi
    4b89:	48 c7 40 f0 00 00 00 	movq   $0x0,-0x10(%rax)
    4b90:	00 
    4b91:	48 c7 c0 d0 5e ff ff 	mov    $0xffffffffffff5ed0,%rax
    4b98:	64 48 8b 10          	mov    %fs:(%rax),%rdx
    4b9c:	48 8b 42 10          	mov    0x10(%rdx),%rax
    4ba0:	48 85 c0             	test   %rax,%rax
    4ba3:	74 3b                	je     4be0 <clean_checkpoint+0x1b0>
    4ba5:	48 89 30             	mov    %rsi,(%rax)
    4ba8:	4c 8b 34 24          	mov    (%rsp),%r14
    4bac:	49 89 45 f8          	mov    %rax,-0x8(%r13)
    4bb0:	49 83 ee 10          	sub    $0x10,%r14
    4bb4:	4c 89 72 10          	mov    %r14,0x10(%rdx)
    4bb8:	48 8b 44 24 08       	mov    0x8(%rsp),%rax
    4bbd:	48 8b 04 c1          	mov    (%rcx,%rax,8),%rax
    4bc1:	48 8b 40 38          	mov    0x38(%rax),%rax
    4bc5:	48 83 78 10 00       	cmpq   $0x0,0x10(%rax)
    4bca:	74 43                	je     4c0f <clean_checkpoint+0x1df>
    4bcc:	48 83 c4 18          	add    $0x18,%rsp
    4bd0:	5b                   	pop    %rbx
    4bd1:	5d                   	pop    %rbp
    4bd2:	41 5c                	pop    %r12
    4bd4:	41 5d                	pop    %r13
    4bd6:	41 5e                	pop    %r14
    4bd8:	41 5f                	pop    %r15
    4bda:	c3                   	retq   
    4bdb:	0f 1f 44 00 00       	nopl   0x0(%rax,%rax,1)
    4be0:	48 89 72 08          	mov    %rsi,0x8(%rdx)
    4be4:	eb c2                	jmp    4ba8 <clean_checkpoint+0x178>
    4be6:	66 2e 0f 1f 84 00 00 	nopw   %cs:0x0(%rax,%rax,1)
    4bed:	00 00 00 
    4bf0:	48 8d 4a f0          	lea    -0x10(%rdx),%rcx
    4bf4:	48 89 4e 08          	mov    %rcx,0x8(%rsi)
    4bf8:	48 c7 42 f8 00 00 00 	movq   $0x0,-0x8(%rdx)
    4bff:	00 
    4c00:	48 8b 40 08          	mov    0x8(%rax),%rax
    4c04:	48 85 c0             	test   %rax,%rax
    4c07:	0f 85 d7 fe ff ff    	jne    4ae4 <clean_checkpoint+0xb4>
    4c0d:	eb bd                	jmp    4bcc <clean_checkpoint+0x19c>
    4c0f:	48 8d 0d 8a fa 00 00 	lea    0xfa8a(%rip),%rcx        # 146a0 <__PRETTY_FUNCTION__.6098>
    4c16:	ba 3f 03 00 00       	mov    $0x33f,%edx
    4c1b:	48 8d 35 78 fc 00 00 	lea    0xfc78(%rip),%rsi        # 1489a <__PRETTY_FUNCTION__.5886+0xba>
    4c22:	48 8d 3d bf 02 01 00 	lea    0x102bf(%rip),%rdi        # 14ee8 <__PRETTY_FUNCTION__.5886+0x708>
    4c29:	e8 f2 cb ff ff       	callq  1820 <__assert_fail@plt>
    4c2e:	48 8d 0d 6b fa 00 00 	lea    0xfa6b(%rip),%rcx        # 146a0 <__PRETTY_FUNCTION__.6098>
    4c35:	ba 05 03 00 00       	mov    $0x305,%edx
    4c3a:	48 8d 35 59 fc 00 00 	lea    0xfc59(%rip),%rsi        # 1489a <__PRETTY_FUNCTION__.5886+0xba>
    4c41:	48 8d 3d 71 fc 00 00 	lea    0xfc71(%rip),%rdi        # 148b9 <__PRETTY_FUNCTION__.5886+0xd9>
    4c48:	e8 d3 cb ff ff       	callq  1820 <__assert_fail@plt>
    4c4d:	0f 1f 00             	nopl   (%rax)

0000000000004c50 <__list_insert_tail_by_node.part.0>:
    4c50:	48 83 ec 08          	sub    $0x8,%rsp
    4c54:	48 8d 0d 65 fb 00 00 	lea    0xfb65(%rip),%rcx        # 147c0 <__PRETTY_FUNCTION__.5902>
    4c5b:	ba be 00 00 00       	mov    $0xbe,%edx
    4c60:	48 8d 35 61 fc 00 00 	lea    0xfc61(%rip),%rsi        # 148c8 <__PRETTY_FUNCTION__.5886+0xe8>
    4c67:	48 8d 3d 6b fc 00 00 	lea    0xfc6b(%rip),%rdi        # 148d9 <__PRETTY_FUNCTION__.5886+0xf9>
    4c6e:	e8 ad cb ff ff       	callq  1820 <__assert_fail@plt>
    4c73:	0f 1f 00             	nopl   (%rax)
    4c76:	66 2e 0f 1f 84 00 00 	nopw   %cs:0x0(%rax,%rax,1)
    4c7d:	00 00 00 

0000000000004c80 <umalloc>:
    4c80:	48 89 f7             	mov    %rsi,%rdi
    4c83:	e9 c8 0f 00 00       	jmpq   5c50 <rsalloc>
    4c88:	0f 1f 84 00 00 00 00 	nopl   0x0(%rax,%rax,1)
    4c8f:	00 

0000000000004c90 <ufree>:
    4c90:	48 89 f7             	mov    %rsi,%rdi
    4c93:	e9 f8 0f 00 00       	jmpq   5c90 <rsfree>
    4c98:	0f 1f 84 00 00 00 00 	nopl   0x0(%rax,%rax,1)
    4c9f:	00 

0000000000004ca0 <__list_insert_head>:
    4ca0:	41 57                	push   %r15
    4ca2:	41 56                	push   %r14
    4ca4:	41 55                	push   %r13
    4ca6:	41 54                	push   %r12
    4ca8:	55                   	push   %rbp
    4ca9:	53                   	push   %rbx
    4caa:	48 83 ec 08          	sub    $0x8,%rsp
    4cae:	48 85 f6             	test   %rsi,%rsi
    4cb1:	0f 84 90 00 00 00    	je     4d47 <__list_insert_head+0xa7>
    4cb7:	41 89 d4             	mov    %edx,%r12d
    4cba:	49 89 cd             	mov    %rcx,%r13
    4cbd:	4c 8b 36             	mov    (%rsi),%r14
    4cc0:	48 89 f3             	mov    %rsi,%rbx
    4cc3:	4d 8d 7c 24 10       	lea    0x10(%r12),%r15
    4cc8:	4c 89 ff             	mov    %r15,%rdi
    4ccb:	e8 80 0f 00 00       	callq  5c50 <rsalloc>
    4cd0:	4c 89 fa             	mov    %r15,%rdx
    4cd3:	31 f6                	xor    %esi,%esi
    4cd5:	48 89 c5             	mov    %rax,%rbp
    4cd8:	48 89 c7             	mov    %rax,%rdi
    4cdb:	e8 70 cb ff ff       	callq  1850 <memset@plt>
    4ce0:	4c 8d 45 10          	lea    0x10(%rbp),%r8
    4ce4:	4c 89 e2             	mov    %r12,%rdx
    4ce7:	4c 89 ee             	mov    %r13,%rsi
    4cea:	4c 89 c7             	mov    %r8,%rdi
    4ced:	e8 fe cb ff ff       	callq  18f0 <memcpy@plt>
    4cf2:	49 89 c0             	mov    %rax,%r8
    4cf5:	4d 85 f6             	test   %r14,%r14
    4cf8:	74 3e                	je     4d38 <__list_insert_head+0x98>
    4cfa:	48 8b 43 08          	mov    0x8(%rbx),%rax
    4cfe:	48 c7 45 08 00 00 00 	movq   $0x0,0x8(%rbp)
    4d05:	00 
    4d06:	48 89 45 00          	mov    %rax,0x0(%rbp)
    4d0a:	48 89 68 08          	mov    %rbp,0x8(%rax)
    4d0e:	48 89 6b 08          	mov    %rbp,0x8(%rbx)
    4d12:	48 8b 03             	mov    (%rbx),%rax
    4d15:	48 8d 50 01          	lea    0x1(%rax),%rdx
    4d19:	48 89 13             	mov    %rdx,(%rbx)
    4d1c:	4c 39 f0             	cmp    %r14,%rax
    4d1f:	75 45                	jne    4d66 <__list_insert_head+0xc6>
    4d21:	48 83 c4 08          	add    $0x8,%rsp
    4d25:	4c 89 c0             	mov    %r8,%rax
    4d28:	5b                   	pop    %rbx
    4d29:	5d                   	pop    %rbp
    4d2a:	41 5c                	pop    %r12
    4d2c:	41 5d                	pop    %r13
    4d2e:	41 5e                	pop    %r14
    4d30:	41 5f                	pop    %r15
    4d32:	c3                   	retq   
    4d33:	0f 1f 44 00 00       	nopl   0x0(%rax,%rax,1)
    4d38:	66 48 0f 6e c5       	movq   %rbp,%xmm0
    4d3d:	66 0f 6c c0          	punpcklqdq %xmm0,%xmm0
    4d41:	0f 11 43 08          	movups %xmm0,0x8(%rbx)
    4d45:	eb cb                	jmp    4d12 <__list_insert_head+0x72>
    4d47:	48 8d 0d 92 fa 00 00 	lea    0xfa92(%rip),%rcx        # 147e0 <__PRETTY_FUNCTION__.5886>
    4d4e:	ba 6d 00 00 00       	mov    $0x6d,%edx
    4d53:	48 8d 35 6e fb 00 00 	lea    0xfb6e(%rip),%rsi        # 148c8 <__PRETTY_FUNCTION__.5886+0xe8>
    4d5a:	48 8d 3d 78 fb 00 00 	lea    0xfb78(%rip),%rdi        # 148d9 <__PRETTY_FUNCTION__.5886+0xf9>
    4d61:	e8 ba ca ff ff       	callq  1820 <__assert_fail@plt>
    4d66:	48 8d 0d 73 fa 00 00 	lea    0xfa73(%rip),%rcx        # 147e0 <__PRETTY_FUNCTION__.5886>
    4d6d:	ba 8b 00 00 00       	mov    $0x8b,%edx
    4d72:	48 8d 35 4f fb 00 00 	lea    0xfb4f(%rip),%rsi        # 148c8 <__PRETTY_FUNCTION__.5886+0xe8>
    4d79:	48 8d 3d 5b fb 00 00 	lea    0xfb5b(%rip),%rdi        # 148db <__PRETTY_FUNCTION__.5886+0xfb>
    4d80:	e8 9b ca ff ff       	callq  1820 <__assert_fail@plt>
    4d85:	90                   	nop
    4d86:	66 2e 0f 1f 84 00 00 	nopw   %cs:0x0(%rax,%rax,1)
    4d8d:	00 00 00 

0000000000004d90 <__list_insert_tail>:
    4d90:	41 56                	push   %r14
    4d92:	41 55                	push   %r13
    4d94:	49 89 cd             	mov    %rcx,%r13
    4d97:	41 54                	push   %r12
    4d99:	41 89 d4             	mov    %edx,%r12d
    4d9c:	55                   	push   %rbp
    4d9d:	4d 8d 74 24 10       	lea    0x10(%r12),%r14
    4da2:	53                   	push   %rbx
    4da3:	4c 89 f7             	mov    %r14,%rdi
    4da6:	48 89 f3             	mov    %rsi,%rbx
    4da9:	e8 a2 0e 00 00       	callq  5c50 <rsalloc>
    4dae:	4c 89 f2             	mov    %r14,%rdx
    4db1:	31 f6                	xor    %esi,%esi
    4db3:	48 89 c5             	mov    %rax,%rbp
    4db6:	48 89 c7             	mov    %rax,%rdi
    4db9:	e8 92 ca ff ff       	callq  1850 <memset@plt>
    4dbe:	4c 8d 45 10          	lea    0x10(%rbp),%r8
    4dc2:	4c 89 e2             	mov    %r12,%rdx
    4dc5:	4c 89 ee             	mov    %r13,%rsi
    4dc8:	4c 89 c7             	mov    %r8,%rdi
    4dcb:	e8 20 cb ff ff       	callq  18f0 <memcpy@plt>
    4dd0:	49 89 c0             	mov    %rax,%r8
    4dd3:	48 85 db             	test   %rbx,%rbx
    4dd6:	74 47                	je     4e1f <__list_insert_tail+0x8f>
    4dd8:	48 83 7b 08 00       	cmpq   $0x0,0x8(%rbx)
    4ddd:	48 8b 03             	mov    (%rbx),%rax
    4de0:	74 2e                	je     4e10 <__list_insert_tail+0x80>
    4de2:	48 8b 53 10          	mov    0x10(%rbx),%rdx
    4de6:	48 c7 45 00 00 00 00 	movq   $0x0,0x0(%rbp)
    4ded:	00 
    4dee:	48 89 55 08          	mov    %rdx,0x8(%rbp)
    4df2:	48 89 2a             	mov    %rbp,(%rdx)
    4df5:	48 89 6b 10          	mov    %rbp,0x10(%rbx)
    4df9:	48 83 c0 01          	add    $0x1,%rax
    4dfd:	48 89 03             	mov    %rax,(%rbx)
    4e00:	5b                   	pop    %rbx
    4e01:	4c 89 c0             	mov    %r8,%rax
    4e04:	5d                   	pop    %rbp
    4e05:	41 5c                	pop    %r12
    4e07:	41 5d                	pop    %r13
    4e09:	41 5e                	pop    %r14
    4e0b:	c3                   	retq   
    4e0c:	0f 1f 40 00          	nopl   0x0(%rax)
    4e10:	66 48 0f 6e c5       	movq   %rbp,%xmm0
    4e15:	66 0f 6c c0          	punpcklqdq %xmm0,%xmm0
    4e19:	0f 11 43 08          	movups %xmm0,0x8(%rbx)
    4e1d:	eb da                	jmp    4df9 <__list_insert_tail+0x69>
    4e1f:	e8 2c fe ff ff       	callq  4c50 <__list_insert_tail_by_node.part.0>
    4e24:	66 90                	xchg   %ax,%ax
    4e26:	66 2e 0f 1f 84 00 00 	nopw   %cs:0x0(%rax,%rax,1)
    4e2d:	00 00 00 

0000000000004e30 <__list_insert_tail_by_node>:
    4e30:	48 85 ff             	test   %rdi,%rdi
    4e33:	74 4c                	je     4e81 <__list_insert_tail_by_node+0x51>
    4e35:	48 83 7f 08 00       	cmpq   $0x0,0x8(%rdi)
    4e3a:	48 8b 07             	mov    (%rdi),%rax
    4e3d:	74 29                	je     4e68 <__list_insert_tail_by_node+0x38>
    4e3f:	48 8b 57 10          	mov    0x10(%rdi),%rdx
    4e43:	48 83 c0 01          	add    $0x1,%rax
    4e47:	48 c7 06 00 00 00 00 	movq   $0x0,(%rsi)
    4e4e:	48 89 56 08          	mov    %rdx,0x8(%rsi)
    4e52:	48 89 32             	mov    %rsi,(%rdx)
    4e55:	48 89 07             	mov    %rax,(%rdi)
    4e58:	48 8d 46 10          	lea    0x10(%rsi),%rax
    4e5c:	48 89 77 10          	mov    %rsi,0x10(%rdi)
    4e60:	c3                   	retq   
    4e61:	0f 1f 80 00 00 00 00 	nopl   0x0(%rax)
    4e68:	66 48 0f 6e c6       	movq   %rsi,%xmm0
    4e6d:	48 83 c0 01          	add    $0x1,%rax
    4e71:	66 0f 6c c0          	punpcklqdq %xmm0,%xmm0
    4e75:	48 89 07             	mov    %rax,(%rdi)
    4e78:	48 8d 46 10          	lea    0x10(%rsi),%rax
    4e7c:	0f 11 47 08          	movups %xmm0,0x8(%rdi)
    4e80:	c3                   	retq   
    4e81:	50                   	push   %rax
    4e82:	e8 c9 fd ff ff       	callq  4c50 <__list_insert_tail_by_node.part.0>
    4e87:	66 0f 1f 84 00 00 00 	nopw   0x0(%rax,%rax,1)
    4e8e:	00 00 

0000000000004e90 <dump_l>:
    4e90:	48 85 ff             	test   %rdi,%rdi
    4e93:	74 4b                	je     4ee0 <dump_l+0x50>
    4e95:	41 54                	push   %r12
    4e97:	4c 8d 25 5a fa 00 00 	lea    0xfa5a(%rip),%r12        # 148f8 <__PRETTY_FUNCTION__.5886+0x118>
    4e9e:	55                   	push   %rbp
    4e9f:	48 89 f5             	mov    %rsi,%rbp
    4ea2:	53                   	push   %rbx
    4ea3:	48 89 fb             	mov    %rdi,%rbx
    4ea6:	66 2e 0f 1f 84 00 00 	nopw   %cs:0x0(%rax,%rax,1)
    4ead:	00 00 00 
    4eb0:	f2 0f 10 44 2b 10    	movsd  0x10(%rbx,%rbp,1),%xmm0
    4eb6:	4c 89 e6             	mov    %r12,%rsi
    4eb9:	bf 01 00 00 00       	mov    $0x1,%edi
    4ebe:	b8 01 00 00 00       	mov    $0x1,%eax
    4ec3:	e8 a8 ca ff ff       	callq  1970 <__printf_chk@plt>
    4ec8:	48 8b 1b             	mov    (%rbx),%rbx
    4ecb:	48 85 db             	test   %rbx,%rbx
    4ece:	75 e0                	jne    4eb0 <dump_l+0x20>
    4ed0:	5b                   	pop    %rbx
    4ed1:	bf 0a 00 00 00       	mov    $0xa,%edi
    4ed6:	5d                   	pop    %rbp
    4ed7:	41 5c                	pop    %r12
    4ed9:	e9 b2 c7 ff ff       	jmpq   1690 <putchar@plt>
    4ede:	66 90                	xchg   %ax,%ax
    4ee0:	bf 0a 00 00 00       	mov    $0xa,%edi
    4ee5:	e9 a6 c7 ff ff       	jmpq   1690 <putchar@plt>
    4eea:	66 0f 1f 44 00 00    	nopw   0x0(%rax,%rax,1)

0000000000004ef0 <__list_place>:
    4ef0:	48 85 f6             	test   %rsi,%rsi
    4ef3:	0f 84 c9 00 00 00    	je     4fc2 <__list_place+0xd2>
    4ef9:	48 8b 3e             	mov    (%rsi),%rdi
    4efc:	4c 8d 49 10          	lea    0x10(%rcx),%r9
    4f00:	48 85 ff             	test   %rdi,%rdi
    4f03:	74 5b                	je     4f60 <__list_place+0x70>
    4f05:	4c 8b 46 10          	mov    0x10(%rsi),%r8
    4f09:	4d 85 c0             	test   %r8,%r8
    4f0c:	74 71                	je     4f7f <__list_place+0x8f>
    4f0e:	f2 0f 10 4c 11 10    	movsd  0x10(%rcx,%rdx,1),%xmm1
    4f14:	4c 89 c0             	mov    %r8,%rax
    4f17:	eb 10                	jmp    4f29 <__list_place+0x39>
    4f19:	0f 1f 80 00 00 00 00 	nopl   0x0(%rax)
    4f20:	48 8b 40 08          	mov    0x8(%rax),%rax
    4f24:	48 85 c0             	test   %rax,%rax
    4f27:	74 77                	je     4fa0 <__list_place+0xb0>
    4f29:	f2 0f 10 44 10 10    	movsd  0x10(%rax,%rdx,1),%xmm0
    4f2f:	66 0f 2f c1          	comisd %xmm1,%xmm0
    4f33:	77 eb                	ja     4f20 <__list_place+0x30>
    4f35:	49 39 c0             	cmp    %rax,%r8
    4f38:	74 45                	je     4f7f <__list_place+0x8f>
    4f3a:	48 8b 10             	mov    (%rax),%rdx
    4f3d:	48 83 c7 01          	add    $0x1,%rdi
    4f41:	48 89 41 08          	mov    %rax,0x8(%rcx)
    4f45:	48 89 11             	mov    %rdx,(%rcx)
    4f48:	48 8b 10             	mov    (%rax),%rdx
    4f4b:	48 89 4a 08          	mov    %rcx,0x8(%rdx)
    4f4f:	48 89 08             	mov    %rcx,(%rax)
    4f52:	4c 89 c8             	mov    %r9,%rax
    4f55:	48 89 3e             	mov    %rdi,(%rsi)
    4f58:	c3                   	retq   
    4f59:	0f 1f 80 00 00 00 00 	nopl   0x0(%rax)
    4f60:	66 0f ef c0          	pxor   %xmm0,%xmm0
    4f64:	48 83 c7 01          	add    $0x1,%rdi
    4f68:	4c 89 c8             	mov    %r9,%rax
    4f6b:	0f 11 01             	movups %xmm0,(%rcx)
    4f6e:	66 48 0f 6e c1       	movq   %rcx,%xmm0
    4f73:	66 0f 6c c0          	punpcklqdq %xmm0,%xmm0
    4f77:	48 89 3e             	mov    %rdi,(%rsi)
    4f7a:	0f 11 46 08          	movups %xmm0,0x8(%rsi)
    4f7e:	c3                   	retq   
    4f7f:	48 83 c7 01          	add    $0x1,%rdi
    4f83:	48 c7 01 00 00 00 00 	movq   $0x0,(%rcx)
    4f8a:	4c 89 c8             	mov    %r9,%rax
    4f8d:	49 89 08             	mov    %rcx,(%r8)
    4f90:	4c 89 41 08          	mov    %r8,0x8(%rcx)
    4f94:	48 89 4e 10          	mov    %rcx,0x10(%rsi)
    4f98:	48 89 3e             	mov    %rdi,(%rsi)
    4f9b:	c3                   	retq   
    4f9c:	0f 1f 40 00          	nopl   0x0(%rax)
    4fa0:	48 8b 46 08          	mov    0x8(%rsi),%rax
    4fa4:	48 83 c7 01          	add    $0x1,%rdi
    4fa8:	48 c7 41 08 00 00 00 	movq   $0x0,0x8(%rcx)
    4faf:	00 
    4fb0:	48 89 01             	mov    %rax,(%rcx)
    4fb3:	48 89 48 08          	mov    %rcx,0x8(%rax)
    4fb7:	4c 89 c8             	mov    %r9,%rax
    4fba:	48 89 4e 08          	mov    %rcx,0x8(%rsi)
    4fbe:	48 89 3e             	mov    %rdi,(%rsi)
    4fc1:	c3                   	retq   
    4fc2:	50                   	push   %rax
    4fc3:	48 8d 0d e6 f7 00 00 	lea    0xf7e6(%rip),%rcx        # 147b0 <__PRETTY_FUNCTION__.5930>
    4fca:	ba 09 01 00 00       	mov    $0x109,%edx
    4fcf:	48 8d 35 f2 f8 00 00 	lea    0xf8f2(%rip),%rsi        # 148c8 <__PRETTY_FUNCTION__.5886+0xe8>
    4fd6:	48 8d 3d fc f8 00 00 	lea    0xf8fc(%rip),%rdi        # 148d9 <__PRETTY_FUNCTION__.5886+0xf9>
    4fdd:	e8 3e c8 ff ff       	callq  1820 <__assert_fail@plt>
    4fe2:	0f 1f 40 00          	nopl   0x0(%rax)
    4fe6:	66 2e 0f 1f 84 00 00 	nopw   %cs:0x0(%rax,%rax,1)
    4fed:	00 00 00 

0000000000004ff0 <__list_insert>:
    4ff0:	41 57                	push   %r15
    4ff2:	49 89 cf             	mov    %rcx,%r15
    4ff5:	41 56                	push   %r14
    4ff7:	41 55                	push   %r13
    4ff9:	41 89 d5             	mov    %edx,%r13d
    4ffc:	41 54                	push   %r12
    4ffe:	4d 8d 75 10          	lea    0x10(%r13),%r14
    5002:	55                   	push   %rbp
    5003:	89 fd                	mov    %edi,%ebp
    5005:	4c 89 f7             	mov    %r14,%rdi
    5008:	53                   	push   %rbx
    5009:	4c 89 c3             	mov    %r8,%rbx
    500c:	48 83 ec 18          	sub    $0x18,%rsp
    5010:	48 89 74 24 08       	mov    %rsi,0x8(%rsp)
    5015:	e8 36 0c 00 00       	callq  5c50 <rsalloc>
    501a:	4c 89 f2             	mov    %r14,%rdx
    501d:	31 f6                	xor    %esi,%esi
    501f:	49 89 c4             	mov    %rax,%r12
    5022:	48 89 c7             	mov    %rax,%rdi
    5025:	e8 26 c8 ff ff       	callq  1850 <memset@plt>
    502a:	4c 89 f2             	mov    %r14,%rdx
    502d:	4c 89 e7             	mov    %r12,%rdi
    5030:	31 f6                	xor    %esi,%esi
    5032:	e8 19 c8 ff ff       	callq  1850 <memset@plt>
    5037:	49 8d 7c 24 10       	lea    0x10(%r12),%rdi
    503c:	4c 89 ea             	mov    %r13,%rdx
    503f:	48 89 de             	mov    %rbx,%rsi
    5042:	e8 a9 c8 ff ff       	callq  18f0 <memcpy@plt>
    5047:	48 8b 74 24 08       	mov    0x8(%rsp),%rsi
    504c:	48 83 c4 18          	add    $0x18,%rsp
    5050:	89 ef                	mov    %ebp,%edi
    5052:	5b                   	pop    %rbx
    5053:	4c 89 e1             	mov    %r12,%rcx
    5056:	5d                   	pop    %rbp
    5057:	4c 89 fa             	mov    %r15,%rdx
    505a:	41 5c                	pop    %r12
    505c:	41 5d                	pop    %r13
    505e:	41 5e                	pop    %r14
    5060:	41 5f                	pop    %r15
    5062:	e9 89 fe ff ff       	jmpq   4ef0 <__list_place>
    5067:	66 0f 1f 84 00 00 00 	nopw   0x0(%rax,%rax,1)
    506e:	00 00 

0000000000005070 <__list_extract>:
    5070:	41 57                	push   %r15
    5072:	41 56                	push   %r14
    5074:	41 55                	push   %r13
    5076:	41 54                	push   %r12
    5078:	55                   	push   %rbp
    5079:	53                   	push   %rbx
    507a:	48 83 ec 08          	sub    $0x8,%rsp
    507e:	48 85 f6             	test   %rsi,%rsi
    5081:	0f 84 38 01 00 00    	je     51bf <__list_extract+0x14f>
    5087:	48 8b 46 08          	mov    0x8(%rsi),%rax
    508b:	48 89 f3             	mov    %rsi,%rbx
    508e:	48 85 c0             	test   %rax,%rax
    5091:	0f 84 04 01 00 00    	je     519b <__list_extract+0x12b>
    5097:	49 89 c4             	mov    %rax,%r12
    509a:	eb 11                	jmp    50ad <__list_extract+0x3d>
    509c:	0f 1f 40 00          	nopl   0x0(%rax)
    50a0:	4d 8b 24 24          	mov    (%r12),%r12
    50a4:	4d 85 e4             	test   %r12,%r12
    50a7:	0f 84 98 00 00 00    	je     5145 <__list_extract+0xd5>
    50ad:	66 41 0f 2e 44 0c 10 	ucomisd 0x10(%r12,%rcx,1),%xmm0
    50b4:	49 8d 6c 24 10       	lea    0x10(%r12),%rbp
    50b9:	7a e5                	jp     50a0 <__list_extract+0x30>
    50bb:	75 e3                	jne    50a0 <__list_extract+0x30>
    50bd:	4c 8b 33             	mov    (%rbx),%r14
    50c0:	48 8b 73 10          	mov    0x10(%rbx),%rsi
    50c4:	4c 39 e0             	cmp    %r12,%rax
    50c7:	0f 84 93 00 00 00    	je     5160 <__list_extract+0xf0>
    50cd:	49 8b 44 24 08       	mov    0x8(%r12),%rax
    50d2:	49 39 f4             	cmp    %rsi,%r12
    50d5:	0f 84 a3 00 00 00    	je     517e <__list_extract+0x10e>
    50db:	49 8b 0c 24          	mov    (%r12),%rcx
    50df:	48 85 c9             	test   %rcx,%rcx
    50e2:	74 09                	je     50ed <__list_extract+0x7d>
    50e4:	48 89 41 08          	mov    %rax,0x8(%rcx)
    50e8:	49 8b 44 24 08       	mov    0x8(%r12),%rax
    50ed:	48 85 c0             	test   %rax,%rax
    50f0:	74 03                	je     50f5 <__list_extract+0x85>
    50f2:	48 89 08             	mov    %rcx,(%rax)
    50f5:	41 89 d5             	mov    %edx,%r13d
    50f8:	4c 89 ef             	mov    %r13,%rdi
    50fb:	e8 50 0b 00 00       	callq  5c50 <rsalloc>
    5100:	4c 89 ea             	mov    %r13,%rdx
    5103:	48 89 ee             	mov    %rbp,%rsi
    5106:	48 89 c7             	mov    %rax,%rdi
    5109:	49 89 c7             	mov    %rax,%r15
    510c:	e8 df c7 ff ff       	callq  18f0 <memcpy@plt>
    5111:	4c 89 ea             	mov    %r13,%rdx
    5114:	31 f6                	xor    %esi,%esi
    5116:	48 89 ef             	mov    %rbp,%rdi
    5119:	66 0f 6f 05 ef fe 00 	movdqa 0xfeef(%rip),%xmm0        # 15010 <__PRETTY_FUNCTION__.5886+0x830>
    5120:	00 
    5121:	41 0f 11 04 24       	movups %xmm0,(%r12)
    5126:	e8 25 c7 ff ff       	callq  1850 <memset@plt>
    512b:	4c 89 e7             	mov    %r12,%rdi
    512e:	4d 89 fc             	mov    %r15,%r12
    5131:	e8 5a 0b 00 00       	callq  5c90 <rsfree>
    5136:	48 8b 03             	mov    (%rbx),%rax
    5139:	48 8d 50 ff          	lea    -0x1(%rax),%rdx
    513d:	48 89 13             	mov    %rdx,(%rbx)
    5140:	4c 39 f0             	cmp    %r14,%rax
    5143:	75 5b                	jne    51a0 <__list_extract+0x130>
    5145:	48 83 c4 08          	add    $0x8,%rsp
    5149:	4c 89 e0             	mov    %r12,%rax
    514c:	5b                   	pop    %rbx
    514d:	5d                   	pop    %rbp
    514e:	41 5c                	pop    %r12
    5150:	41 5d                	pop    %r13
    5152:	41 5e                	pop    %r14
    5154:	41 5f                	pop    %r15
    5156:	c3                   	retq   
    5157:	66 0f 1f 84 00 00 00 	nopw   0x0(%rax,%rax,1)
    515e:	00 00 
    5160:	49 8b 0c 24          	mov    (%r12),%rcx
    5164:	48 89 4b 08          	mov    %rcx,0x8(%rbx)
    5168:	48 c7 41 08 00 00 00 	movq   $0x0,0x8(%rcx)
    516f:	00 
    5170:	49 8b 44 24 08       	mov    0x8(%r12),%rax
    5175:	49 39 f4             	cmp    %rsi,%r12
    5178:	0f 85 66 ff ff ff    	jne    50e4 <__list_extract+0x74>
    517e:	48 89 43 10          	mov    %rax,0x10(%rbx)
    5182:	48 c7 00 00 00 00 00 	movq   $0x0,(%rax)
    5189:	49 8b 0c 24          	mov    (%r12),%rcx
    518d:	48 85 c9             	test   %rcx,%rcx
    5190:	0f 85 4e ff ff ff    	jne    50e4 <__list_extract+0x74>
    5196:	e9 57 ff ff ff       	jmpq   50f2 <__list_extract+0x82>
    519b:	45 31 e4             	xor    %r12d,%r12d
    519e:	eb a5                	jmp    5145 <__list_extract+0xd5>
    51a0:	48 8d 0d f9 f5 00 00 	lea    0xf5f9(%rip),%rcx        # 147a0 <__PRETTY_FUNCTION__.5952>
    51a7:	ba 83 01 00 00       	mov    $0x183,%edx
    51ac:	48 8d 35 15 f7 00 00 	lea    0xf715(%rip),%rsi        # 148c8 <__PRETTY_FUNCTION__.5886+0xe8>
    51b3:	48 8d 3d 45 f7 00 00 	lea    0xf745(%rip),%rdi        # 148ff <__PRETTY_FUNCTION__.5886+0x11f>
    51ba:	e8 61 c6 ff ff       	callq  1820 <__assert_fail@plt>
    51bf:	48 8d 0d da f5 00 00 	lea    0xf5da(%rip),%rcx        # 147a0 <__PRETTY_FUNCTION__.5952>
    51c6:	ba 57 01 00 00       	mov    $0x157,%edx
    51cb:	48 8d 35 f6 f6 00 00 	lea    0xf6f6(%rip),%rsi        # 148c8 <__PRETTY_FUNCTION__.5886+0xe8>
    51d2:	48 8d 3d 00 f7 00 00 	lea    0xf700(%rip),%rdi        # 148d9 <__PRETTY_FUNCTION__.5886+0xf9>
    51d9:	e8 42 c6 ff ff       	callq  1820 <__assert_fail@plt>
    51de:	66 90                	xchg   %ax,%ax

00000000000051e0 <__list_delete>:
    51e0:	55                   	push   %rbp
    51e1:	53                   	push   %rbx
    51e2:	89 d3                	mov    %edx,%ebx
    51e4:	48 83 ec 18          	sub    $0x18,%rsp
    51e8:	64 48 8b 04 25 28 00 	mov    %fs:0x28,%rax
    51ef:	00 00 
    51f1:	48 89 44 24 08       	mov    %rax,0x8(%rsp)
    51f6:	31 c0                	xor    %eax,%eax
    51f8:	e8 73 fe ff ff       	callq  5070 <__list_extract>
    51fd:	45 31 c0             	xor    %r8d,%r8d
    5200:	48 89 04 24          	mov    %rax,(%rsp)
    5204:	48 85 c0             	test   %rax,%rax
    5207:	74 20                	je     5229 <__list_delete+0x49>
    5209:	89 da                	mov    %ebx,%edx
    520b:	48 89 e7             	mov    %rsp,%rdi
    520e:	b9 08 00 00 00       	mov    $0x8,%ecx
    5213:	31 f6                	xor    %esi,%esi
    5215:	e8 16 c8 ff ff       	callq  1a30 <__memset_chk@plt>
    521a:	48 8b 3c 24          	mov    (%rsp),%rdi
    521e:	e8 6d 0a 00 00       	callq  5c90 <rsfree>
    5223:	41 b8 01 00 00 00    	mov    $0x1,%r8d
    5229:	48 8b 44 24 08       	mov    0x8(%rsp),%rax
    522e:	64 48 33 04 25 28 00 	xor    %fs:0x28,%rax
    5235:	00 00 
    5237:	75 0a                	jne    5243 <__list_delete+0x63>
    5239:	48 83 c4 18          	add    $0x18,%rsp
    523d:	44 89 c0             	mov    %r8d,%eax
    5240:	5b                   	pop    %rbx
    5241:	5d                   	pop    %rbp
    5242:	c3                   	retq   
    5243:	e8 58 c5 ff ff       	callq  17a0 <__stack_chk_fail@plt>
    5248:	0f 1f 84 00 00 00 00 	nopl   0x0(%rax,%rax,1)
    524f:	00 

0000000000005250 <__list_extract_by_content>:
    5250:	41 57                	push   %r15
    5252:	41 56                	push   %r14
    5254:	41 55                	push   %r13
    5256:	41 54                	push   %r12
    5258:	55                   	push   %rbp
    5259:	53                   	push   %rbx
    525a:	48 83 ec 18          	sub    $0x18,%rsp
    525e:	48 85 f6             	test   %rsi,%rsi
    5261:	0f 84 50 01 00 00    	je     53b7 <__list_extract_by_content+0x167>
    5267:	48 8b 06             	mov    (%rsi),%rax
    526a:	48 89 f3             	mov    %rsi,%rbx
    526d:	48 89 cd             	mov    %rcx,%rbp
    5270:	48 8b 76 10          	mov    0x10(%rsi),%rsi
    5274:	4c 8d 71 f0          	lea    -0x10(%rcx),%r14
    5278:	48 89 44 24 08       	mov    %rax,0x8(%rsp)
    527d:	4c 39 73 08          	cmp    %r14,0x8(%rbx)
    5281:	0f 84 c1 00 00 00    	je     5348 <__list_extract_by_content+0xf8>
    5287:	48 8b 41 f8          	mov    -0x8(%rcx),%rax
    528b:	4c 39 f6             	cmp    %r14,%rsi
    528e:	0f 84 8c 00 00 00    	je     5320 <__list_extract_by_content+0xd0>
    5294:	48 8b 49 f0          	mov    -0x10(%rcx),%rcx
    5298:	48 85 c9             	test   %rcx,%rcx
    529b:	74 08                	je     52a5 <__list_extract_by_content+0x55>
    529d:	48 89 41 08          	mov    %rax,0x8(%rcx)
    52a1:	48 8b 45 f8          	mov    -0x8(%rbp),%rax
    52a5:	48 85 c0             	test   %rax,%rax
    52a8:	74 03                	je     52ad <__list_extract_by_content+0x5d>
    52aa:	48 89 08             	mov    %rcx,(%rax)
    52ad:	41 89 d7             	mov    %edx,%r15d
    52b0:	45 31 e4             	xor    %r12d,%r12d
    52b3:	45 84 c0             	test   %r8b,%r8b
    52b6:	74 19                	je     52d1 <__list_extract_by_content+0x81>
    52b8:	4c 89 ff             	mov    %r15,%rdi
    52bb:	e8 90 09 00 00       	callq  5c50 <rsalloc>
    52c0:	4c 89 fa             	mov    %r15,%rdx
    52c3:	48 89 ee             	mov    %rbp,%rsi
    52c6:	48 89 c7             	mov    %rax,%rdi
    52c9:	49 89 c4             	mov    %rax,%r12
    52cc:	e8 1f c6 ff ff       	callq  18f0 <memcpy@plt>
    52d1:	66 0f 6f 05 47 fd 00 	movdqa 0xfd47(%rip),%xmm0        # 15020 <__PRETTY_FUNCTION__.5886+0x840>
    52d8:	00 
    52d9:	4c 89 fa             	mov    %r15,%rdx
    52dc:	be e9 00 00 00       	mov    $0xe9,%esi
    52e1:	48 89 ef             	mov    %rbp,%rdi
    52e4:	0f 11 45 f0          	movups %xmm0,-0x10(%rbp)
    52e8:	e8 63 c5 ff ff       	callq  1850 <memset@plt>
    52ed:	4c 89 f7             	mov    %r14,%rdi
    52f0:	e8 9b 09 00 00       	callq  5c90 <rsfree>
    52f5:	48 8b 03             	mov    (%rbx),%rax
    52f8:	48 8d 50 ff          	lea    -0x1(%rax),%rdx
    52fc:	48 89 13             	mov    %rdx,(%rbx)
    52ff:	48 3b 44 24 08       	cmp    0x8(%rsp),%rax
    5304:	0f 85 cc 00 00 00    	jne    53d6 <__list_extract_by_content+0x186>
    530a:	48 83 c4 18          	add    $0x18,%rsp
    530e:	4c 89 e0             	mov    %r12,%rax
    5311:	5b                   	pop    %rbx
    5312:	5d                   	pop    %rbp
    5313:	41 5c                	pop    %r12
    5315:	41 5d                	pop    %r13
    5317:	41 5e                	pop    %r14
    5319:	41 5f                	pop    %r15
    531b:	c3                   	retq   
    531c:	0f 1f 40 00          	nopl   0x0(%rax)
    5320:	48 89 43 10          	mov    %rax,0x10(%rbx)
    5324:	48 85 c0             	test   %rax,%rax
    5327:	74 57                	je     5380 <__list_extract_by_content+0x130>
    5329:	48 c7 00 00 00 00 00 	movq   $0x0,(%rax)
    5330:	48 8b 4d f0          	mov    -0x10(%rbp),%rcx
    5334:	48 85 c9             	test   %rcx,%rcx
    5337:	0f 85 60 ff ff ff    	jne    529d <__list_extract_by_content+0x4d>
    533d:	e9 68 ff ff ff       	jmpq   52aa <__list_extract_by_content+0x5a>
    5342:	66 0f 1f 44 00 00    	nopw   0x0(%rax,%rax,1)
    5348:	48 8b 49 f0          	mov    -0x10(%rcx),%rcx
    534c:	48 89 4b 08          	mov    %rcx,0x8(%rbx)
    5350:	48 85 c9             	test   %rcx,%rcx
    5353:	74 43                	je     5398 <__list_extract_by_content+0x148>
    5355:	48 c7 41 08 00 00 00 	movq   $0x0,0x8(%rcx)
    535c:	00 
    535d:	48 8b 45 f8          	mov    -0x8(%rbp),%rax
    5361:	4c 39 f6             	cmp    %r14,%rsi
    5364:	0f 85 33 ff ff ff    	jne    529d <__list_extract_by_content+0x4d>
    536a:	48 89 43 10          	mov    %rax,0x10(%rbx)
    536e:	48 85 c0             	test   %rax,%rax
    5371:	75 b6                	jne    5329 <__list_extract_by_content+0xd9>
    5373:	e9 25 ff ff ff       	jmpq   529d <__list_extract_by_content+0x4d>
    5378:	0f 1f 84 00 00 00 00 	nopl   0x0(%rax,%rax,1)
    537f:	00 
    5380:	48 8b 49 f0          	mov    -0x10(%rcx),%rcx
    5384:	48 85 c9             	test   %rcx,%rcx
    5387:	0f 85 10 ff ff ff    	jne    529d <__list_extract_by_content+0x4d>
    538d:	e9 1b ff ff ff       	jmpq   52ad <__list_extract_by_content+0x5d>
    5392:	66 0f 1f 44 00 00    	nopw   0x0(%rax,%rax,1)
    5398:	48 8b 45 f8          	mov    -0x8(%rbp),%rax
    539c:	4c 39 f6             	cmp    %r14,%rsi
    539f:	0f 85 00 ff ff ff    	jne    52a5 <__list_extract_by_content+0x55>
    53a5:	48 89 43 10          	mov    %rax,0x10(%rbx)
    53a9:	48 85 c0             	test   %rax,%rax
    53ac:	0f 85 77 ff ff ff    	jne    5329 <__list_extract_by_content+0xd9>
    53b2:	e9 f6 fe ff ff       	jmpq   52ad <__list_extract_by_content+0x5d>
    53b7:	48 8d 0d c2 f3 00 00 	lea    0xf3c2(%rip),%rcx        # 14780 <__PRETTY_FUNCTION__.5979>
    53be:	ba cf 01 00 00       	mov    $0x1cf,%edx
    53c3:	48 8d 35 fe f4 00 00 	lea    0xf4fe(%rip),%rsi        # 148c8 <__PRETTY_FUNCTION__.5886+0xe8>
    53ca:	48 8d 3d 08 f5 00 00 	lea    0xf508(%rip),%rdi        # 148d9 <__PRETTY_FUNCTION__.5886+0xf9>
    53d1:	e8 4a c4 ff ff       	callq  1820 <__assert_fail@plt>
    53d6:	48 8d 0d a3 f3 00 00 	lea    0xf3a3(%rip),%rcx        # 14780 <__PRETTY_FUNCTION__.5979>
    53dd:	ba ff 01 00 00       	mov    $0x1ff,%edx
    53e2:	48 8d 35 df f4 00 00 	lea    0xf4df(%rip),%rsi        # 148c8 <__PRETTY_FUNCTION__.5886+0xe8>
    53e9:	48 8d 3d 0f f5 00 00 	lea    0xf50f(%rip),%rdi        # 148ff <__PRETTY_FUNCTION__.5886+0x11f>
    53f0:	e8 2b c4 ff ff       	callq  1820 <__assert_fail@plt>
    53f5:	90                   	nop
    53f6:	66 2e 0f 1f 84 00 00 	nopw   %cs:0x0(%rax,%rax,1)
    53fd:	00 00 00 

0000000000005400 <__list_find>:
    5400:	48 85 ff             	test   %rdi,%rdi
    5403:	74 32                	je     5437 <__list_find+0x37>
    5405:	48 8b 47 08          	mov    0x8(%rdi),%rax
    5409:	48 85 c0             	test   %rax,%rax
    540c:	75 0a                	jne    5418 <__list_find+0x18>
    540e:	eb 20                	jmp    5430 <__list_find+0x30>
    5410:	48 8b 00             	mov    (%rax),%rax
    5413:	48 85 c0             	test   %rax,%rax
    5416:	74 18                	je     5430 <__list_find+0x30>
    5418:	66 0f 2e 44 30 10    	ucomisd 0x10(%rax,%rsi,1),%xmm0
    541e:	4c 8d 40 10          	lea    0x10(%rax),%r8
    5422:	7a ec                	jp     5410 <__list_find+0x10>
    5424:	75 ea                	jne    5410 <__list_find+0x10>
    5426:	4c 89 c0             	mov    %r8,%rax
    5429:	c3                   	retq   
    542a:	66 0f 1f 44 00 00    	nopw   0x0(%rax,%rax,1)
    5430:	45 31 c0             	xor    %r8d,%r8d
    5433:	4c 89 c0             	mov    %r8,%rax
    5436:	c3                   	retq   
    5437:	50                   	push   %rax
    5438:	48 8d 0d 31 f3 00 00 	lea    0xf331(%rip),%rcx        # 14770 <__PRETTY_FUNCTION__.5989>
    543f:	ba 23 02 00 00       	mov    $0x223,%edx
    5444:	48 8d 35 7d f4 00 00 	lea    0xf47d(%rip),%rsi        # 148c8 <__PRETTY_FUNCTION__.5886+0xe8>
    544b:	48 8d 3d 87 f4 00 00 	lea    0xf487(%rip),%rdi        # 148d9 <__PRETTY_FUNCTION__.5886+0xf9>
    5452:	e8 c9 c3 ff ff       	callq  1820 <__assert_fail@plt>
    5457:	66 0f 1f 84 00 00 00 	nopw   0x0(%rax,%rax,1)
    545e:	00 00 

0000000000005460 <list_pop>:
    5460:	55                   	push   %rbp
    5461:	53                   	push   %rbx
    5462:	48 83 ec 08          	sub    $0x8,%rsp
    5466:	48 85 f6             	test   %rsi,%rsi
    5469:	74 49                	je     54b4 <list_pop+0x54>
    546b:	48 8b 7e 08          	mov    0x8(%rsi),%rdi
    546f:	48 89 f3             	mov    %rsi,%rbx
    5472:	48 85 ff             	test   %rdi,%rdi
    5475:	74 36                	je     54ad <list_pop+0x4d>
    5477:	48 8b 17             	mov    (%rdi),%rdx
    547a:	48 8b 2e             	mov    (%rsi),%rbp
    547d:	48 89 56 08          	mov    %rdx,0x8(%rsi)
    5481:	48 85 d2             	test   %rdx,%rdx
    5484:	74 08                	je     548e <list_pop+0x2e>
    5486:	48 c7 42 08 00 00 00 	movq   $0x0,0x8(%rdx)
    548d:	00 
    548e:	66 0f 6f 05 9a fb 00 	movdqa 0xfb9a(%rip),%xmm0        # 15030 <__PRETTY_FUNCTION__.5886+0x850>
    5495:	00 
    5496:	0f 11 07             	movups %xmm0,(%rdi)
    5499:	e8 f2 07 00 00       	callq  5c90 <rsfree>
    549e:	48 8b 03             	mov    (%rbx),%rax
    54a1:	48 8d 50 ff          	lea    -0x1(%rax),%rdx
    54a5:	48 89 13             	mov    %rdx,(%rbx)
    54a8:	48 39 e8             	cmp    %rbp,%rax
    54ab:	75 26                	jne    54d3 <list_pop+0x73>
    54ad:	48 83 c4 08          	add    $0x8,%rsp
    54b1:	5b                   	pop    %rbx
    54b2:	5d                   	pop    %rbp
    54b3:	c3                   	retq   
    54b4:	48 8d 0d a5 f2 00 00 	lea    0xf2a5(%rip),%rcx        # 14760 <__PRETTY_FUNCTION__.6003>
    54bb:	ba 4b 02 00 00       	mov    $0x24b,%edx
    54c0:	48 8d 35 01 f4 00 00 	lea    0xf401(%rip),%rsi        # 148c8 <__PRETTY_FUNCTION__.5886+0xe8>
    54c7:	48 8d 3d 0b f4 00 00 	lea    0xf40b(%rip),%rdi        # 148d9 <__PRETTY_FUNCTION__.5886+0xf9>
    54ce:	e8 4d c3 ff ff       	callq  1820 <__assert_fail@plt>
    54d3:	48 8d 0d 86 f2 00 00 	lea    0xf286(%rip),%rcx        # 14760 <__PRETTY_FUNCTION__.6003>
    54da:	ba 62 02 00 00       	mov    $0x262,%edx
    54df:	48 8d 35 e2 f3 00 00 	lea    0xf3e2(%rip),%rsi        # 148c8 <__PRETTY_FUNCTION__.5886+0xe8>
    54e6:	48 8d 3d 12 f4 00 00 	lea    0xf412(%rip),%rdi        # 148ff <__PRETTY_FUNCTION__.5886+0x11f>
    54ed:	e8 2e c3 ff ff       	callq  1820 <__assert_fail@plt>
    54f2:	0f 1f 40 00          	nopl   0x0(%rax)
    54f6:	66 2e 0f 1f 84 00 00 	nopw   %cs:0x0(%rax,%rax,1)
    54fd:	00 00 00 

0000000000005500 <__list_trunc>:
    5500:	41 56                	push   %r14
    5502:	41 55                	push   %r13
    5504:	41 54                	push   %r12
    5506:	55                   	push   %rbp
    5507:	53                   	push   %rbx
    5508:	48 83 ec 10          	sub    $0x10,%rsp
    550c:	f2 0f 11 44 24 08    	movsd  %xmm0,0x8(%rsp)
    5512:	48 85 f6             	test   %rsi,%rsi
    5515:	0f 84 25 01 00 00    	je     5640 <__list_trunc+0x140>
    551b:	4c 8b 36             	mov    (%rsi),%r14
    551e:	49 89 f5             	mov    %rsi,%r13
    5521:	4d 85 f6             	test   %r14,%r14
    5524:	0f 84 d6 00 00 00    	je     5600 <__list_trunc+0x100>
    552a:	66 83 f9 0a          	cmp    $0xa,%cx
    552e:	0f 84 2b 01 00 00    	je     565f <__list_trunc+0x15f>
    5534:	89 f8                	mov    %edi,%eax
    5536:	48 8b 7e 08          	mov    0x8(%rsi),%rdi
    553a:	48 85 ff             	test   %rdi,%rdi
    553d:	0f 84 f2 00 00 00    	je     5635 <__list_trunc+0x135>
    5543:	48 89 d5             	mov    %rdx,%rbp
    5546:	45 31 e4             	xor    %r12d,%r12d
    5549:	83 f8 ff             	cmp    $0xffffffff,%eax
    554c:	0f 84 9d 00 00 00    	je     55ef <__list_trunc+0xef>
    5552:	f2 0f 10 4c 24 08    	movsd  0x8(%rsp),%xmm1
    5558:	66 0f 2f 4c 2f 10    	comisd 0x10(%rdi,%rbp,1),%xmm1
    555e:	76 31                	jbe    5591 <__list_trunc+0x91>
    5560:	66 0f 6f 15 d8 fa 00 	movdqa 0xfad8(%rip),%xmm2        # 15040 <__PRETTY_FUNCTION__.5886+0x860>
    5567:	00 
    5568:	48 8b 1f             	mov    (%rdi),%rbx
    556b:	41 83 c4 01          	add    $0x1,%r12d
    556f:	0f 11 17             	movups %xmm2,(%rdi)
    5572:	e8 19 07 00 00       	callq  5c90 <rsfree>
    5577:	48 85 db             	test   %rbx,%rbx
    557a:	0f 84 98 00 00 00    	je     5618 <__list_trunc+0x118>
    5580:	48 89 df             	mov    %rbx,%rdi
    5583:	f2 0f 10 4c 24 08    	movsd  0x8(%rsp),%xmm1
    5589:	66 0f 2f 4c 2f 10    	comisd 0x10(%rdi,%rbp,1),%xmm1
    558f:	77 cf                	ja     5560 <__list_trunc+0x60>
    5591:	49 8b 45 00          	mov    0x0(%r13),%rax
    5595:	44 89 e2             	mov    %r12d,%edx
    5598:	49 89 7d 08          	mov    %rdi,0x8(%r13)
    559c:	48 c7 47 08 00 00 00 	movq   $0x0,0x8(%rdi)
    55a3:	00 
    55a4:	48 89 c6             	mov    %rax,%rsi
    55a7:	48 29 d6             	sub    %rdx,%rsi
    55aa:	48 89 f2             	mov    %rsi,%rdx
    55ad:	49 89 55 00          	mov    %rdx,0x0(%r13)
    55b1:	49 39 c6             	cmp    %rax,%r14
    55b4:	0f 85 b6 00 00 00    	jne    5670 <__list_trunc+0x170>
    55ba:	48 83 c4 10          	add    $0x10,%rsp
    55be:	44 89 e0             	mov    %r12d,%eax
    55c1:	5b                   	pop    %rbx
    55c2:	5d                   	pop    %rbp
    55c3:	41 5c                	pop    %r12
    55c5:	41 5d                	pop    %r13
    55c7:	41 5e                	pop    %r14
    55c9:	c3                   	retq   
    55ca:	66 0f 1f 44 00 00    	nopw   0x0(%rax,%rax,1)
    55d0:	66 0f 6f 25 68 fa 00 	movdqa 0xfa68(%rip),%xmm4        # 15040 <__PRETTY_FUNCTION__.5886+0x860>
    55d7:	00 
    55d8:	48 8b 1f             	mov    (%rdi),%rbx
    55db:	41 83 c4 01          	add    $0x1,%r12d
    55df:	0f 11 27             	movups %xmm4,(%rdi)
    55e2:	e8 a9 06 00 00       	callq  5c90 <rsfree>
    55e7:	48 85 db             	test   %rbx,%rbx
    55ea:	74 2c                	je     5618 <__list_trunc+0x118>
    55ec:	48 89 df             	mov    %rbx,%rdi
    55ef:	f2 0f 10 5c 24 08    	movsd  0x8(%rsp),%xmm3
    55f5:	66 0f 2f 5c 2f 10    	comisd 0x10(%rdi,%rbp,1),%xmm3
    55fb:	77 d3                	ja     55d0 <__list_trunc+0xd0>
    55fd:	eb 92                	jmp    5591 <__list_trunc+0x91>
    55ff:	90                   	nop
    5600:	48 83 c4 10          	add    $0x10,%rsp
    5604:	45 31 e4             	xor    %r12d,%r12d
    5607:	5b                   	pop    %rbx
    5608:	44 89 e0             	mov    %r12d,%eax
    560b:	5d                   	pop    %rbp
    560c:	41 5c                	pop    %r12
    560e:	41 5d                	pop    %r13
    5610:	41 5e                	pop    %r14
    5612:	c3                   	retq   
    5613:	0f 1f 44 00 00       	nopl   0x0(%rax,%rax,1)
    5618:	49 8b 45 00          	mov    0x0(%r13),%rax
    561c:	44 89 e2             	mov    %r12d,%edx
    561f:	48 89 c6             	mov    %rax,%rsi
    5622:	48 29 d6             	sub    %rdx,%rsi
    5625:	48 89 f2             	mov    %rsi,%rdx
    5628:	49 c7 45 08 00 00 00 	movq   $0x0,0x8(%r13)
    562f:	00 
    5630:	e9 78 ff ff ff       	jmpq   55ad <__list_trunc+0xad>
    5635:	4c 89 f2             	mov    %r14,%rdx
    5638:	4c 89 f0             	mov    %r14,%rax
    563b:	45 31 e4             	xor    %r12d,%r12d
    563e:	eb e8                	jmp    5628 <__list_trunc+0x128>
    5640:	48 8d 0d 09 f1 00 00 	lea    0xf109(%rip),%rcx        # 14750 <__PRETTY_FUNCTION__.6018>
    5647:	ba 6f 02 00 00       	mov    $0x26f,%edx
    564c:	48 8d 35 75 f2 00 00 	lea    0xf275(%rip),%rsi        # 148c8 <__PRETTY_FUNCTION__.5886+0xe8>
    5653:	48 8d 3d 7f f2 00 00 	lea    0xf27f(%rip),%rdi        # 148d9 <__PRETTY_FUNCTION__.5886+0xf9>
    565a:	e8 c1 c1 ff ff       	callq  1820 <__assert_fail@plt>
    565f:	48 8d 3d b6 f2 00 00 	lea    0xf2b6(%rip),%rdi        # 1491c <__PRETTY_FUNCTION__.5886+0x13c>
    5666:	e8 d5 c0 ff ff       	callq  1740 <puts@plt>
    566b:	e8 40 c0 ff ff       	callq  16b0 <abort@plt>
    5670:	48 8d 0d d9 f0 00 00 	lea    0xf0d9(%rip),%rcx        # 14750 <__PRETTY_FUNCTION__.6018>
    5677:	ba 91 02 00 00       	mov    $0x291,%edx
    567c:	48 8d 35 45 f2 00 00 	lea    0xf245(%rip),%rsi        # 148c8 <__PRETTY_FUNCTION__.5886+0xe8>
    5683:	48 8d 3d 86 f8 00 00 	lea    0xf886(%rip),%rdi        # 14f10 <__PRETTY_FUNCTION__.5886+0x730>
    568a:	e8 91 c1 ff ff       	callq  1820 <__assert_fail@plt>
    568f:	90                   	nop

0000000000005690 <list_allocate_node>:
    5690:	41 54                	push   %r12
    5692:	4c 8d 66 10          	lea    0x10(%rsi),%r12
    5696:	4c 89 e7             	mov    %r12,%rdi
    5699:	e8 b2 05 00 00       	callq  5c50 <rsalloc>
    569e:	4c 89 e2             	mov    %r12,%rdx
    56a1:	31 f6                	xor    %esi,%esi
    56a3:	48 89 c7             	mov    %rax,%rdi
    56a6:	e8 a5 c1 ff ff       	callq  1850 <memset@plt>
    56ab:	41 5c                	pop    %r12
    56ad:	c3                   	retq   
    56ae:	66 90                	xchg   %ax,%ax

00000000000056b0 <list_allocate_node_buffer>:
    56b0:	41 54                	push   %r12
    56b2:	4c 8d 66 10          	lea    0x10(%rsi),%r12
    56b6:	4c 89 e7             	mov    %r12,%rdi
    56b9:	e8 92 05 00 00       	callq  5c50 <rsalloc>
    56be:	4c 89 e2             	mov    %r12,%rdx
    56c1:	31 f6                	xor    %esi,%esi
    56c3:	48 89 c7             	mov    %rax,%rdi
    56c6:	e8 85 c1 ff ff       	callq  1850 <memset@plt>
    56cb:	41 5c                	pop    %r12
    56cd:	48 8d 40 10          	lea    0x10(%rax),%rax
    56d1:	c3                   	retq   
    56d2:	0f 1f 40 00          	nopl   0x0(%rax)
    56d6:	66 2e 0f 1f 84 00 00 	nopw   %cs:0x0(%rax,%rax,1)
    56dd:	00 00 00 

00000000000056e0 <list_deallocate_node_buffer>:
    56e0:	48 8d 7e f0          	lea    -0x10(%rsi),%rdi
    56e4:	e9 a7 05 00 00       	jmpq   5c90 <rsfree>
    56e9:	0f 1f 80 00 00 00 00 	nopl   0x0(%rax)

00000000000056f0 <__list_place_after_given_node_by_content>:
    56f0:	48 85 f6             	test   %rsi,%rsi
    56f3:	0f 84 9a 00 00 00    	je     5793 <__list_place_after_given_node_by_content+0xa3>
    56f9:	48 8b 06             	mov    (%rsi),%rax
    56fc:	48 85 c0             	test   %rax,%rax
    56ff:	74 2f                	je     5730 <__list_place_after_given_node_by_content+0x40>
    5701:	48 39 4e 10          	cmp    %rcx,0x10(%rsi)
    5705:	74 49                	je     5750 <__list_place_after_given_node_by_content+0x60>
    5707:	48 85 c9             	test   %rcx,%rcx
    570a:	74 64                	je     5770 <__list_place_after_given_node_by_content+0x80>
    570c:	48 8b 39             	mov    (%rcx),%rdi
    570f:	48 83 c0 01          	add    $0x1,%rax
    5713:	48 89 4a 08          	mov    %rcx,0x8(%rdx)
    5717:	48 89 3a             	mov    %rdi,(%rdx)
    571a:	48 89 57 08          	mov    %rdx,0x8(%rdi)
    571e:	48 89 11             	mov    %rdx,(%rcx)
    5721:	48 89 06             	mov    %rax,(%rsi)
    5724:	48 8d 42 10          	lea    0x10(%rdx),%rax
    5728:	c3                   	retq   
    5729:	0f 1f 80 00 00 00 00 	nopl   0x0(%rax)
    5730:	66 0f ef c0          	pxor   %xmm0,%xmm0
    5734:	48 83 c0 01          	add    $0x1,%rax
    5738:	0f 11 02             	movups %xmm0,(%rdx)
    573b:	66 48 0f 6e c2       	movq   %rdx,%xmm0
    5740:	66 0f 6c c0          	punpcklqdq %xmm0,%xmm0
    5744:	48 89 06             	mov    %rax,(%rsi)
    5747:	48 8d 42 10          	lea    0x10(%rdx),%rax
    574b:	0f 11 46 08          	movups %xmm0,0x8(%rsi)
    574f:	c3                   	retq   
    5750:	48 83 c0 01          	add    $0x1,%rax
    5754:	48 c7 02 00 00 00 00 	movq   $0x0,(%rdx)
    575b:	48 89 4a 08          	mov    %rcx,0x8(%rdx)
    575f:	48 89 11             	mov    %rdx,(%rcx)
    5762:	48 89 06             	mov    %rax,(%rsi)
    5765:	48 8d 42 10          	lea    0x10(%rdx),%rax
    5769:	48 89 56 10          	mov    %rdx,0x10(%rsi)
    576d:	c3                   	retq   
    576e:	66 90                	xchg   %ax,%ax
    5770:	48 8b 4e 08          	mov    0x8(%rsi),%rcx
    5774:	48 83 c0 01          	add    $0x1,%rax
    5778:	48 c7 42 08 00 00 00 	movq   $0x0,0x8(%rdx)
    577f:	00 
    5780:	48 89 0a             	mov    %rcx,(%rdx)
    5783:	48 89 51 08          	mov    %rdx,0x8(%rcx)
    5787:	48 89 06             	mov    %rax,(%rsi)
    578a:	48 8d 42 10          	lea    0x10(%rdx),%rax
    578e:	48 89 56 08          	mov    %rdx,0x8(%rsi)
    5792:	c3                   	retq   
    5793:	50                   	push   %rax
    5794:	48 8d 0d 85 ef 00 00 	lea    0xef85(%rip),%rcx        # 14720 <__PRETTY_FUNCTION__.6048>
    579b:	ba d9 02 00 00       	mov    $0x2d9,%edx
    57a0:	48 8d 35 21 f1 00 00 	lea    0xf121(%rip),%rsi        # 148c8 <__PRETTY_FUNCTION__.5886+0xe8>
    57a7:	48 8d 3d 62 37 01 00 	lea    0x13762(%rip),%rdi        # 18f10 <__PRETTY_FUNCTION__.6556+0x3150>
    57ae:	e8 6d c0 ff ff       	callq  1820 <__assert_fail@plt>
    57b3:	0f 1f 00             	nopl   (%rax)
    57b6:	66 2e 0f 1f 84 00 00 	nopw   %cs:0x0(%rax,%rax,1)
    57bd:	00 00 00 

00000000000057c0 <__list_extract_given_node>:
    57c0:	48 85 f6             	test   %rsi,%rsi
    57c3:	0f 84 c2 00 00 00    	je     588b <__list_extract_given_node+0xcb>
    57c9:	48 8b 3e             	mov    (%rsi),%rdi
    57cc:	4c 8b 4e 10          	mov    0x10(%rsi),%r9
    57d0:	4c 8d 42 10          	lea    0x10(%rdx),%r8
    57d4:	48 39 56 08          	cmp    %rdx,0x8(%rsi)
    57d8:	74 5e                	je     5838 <__list_extract_given_node+0x78>
    57da:	48 8b 42 08          	mov    0x8(%rdx),%rax
    57de:	49 39 d1             	cmp    %rdx,%r9
    57e1:	74 35                	je     5818 <__list_extract_given_node+0x58>
    57e3:	48 8b 0a             	mov    (%rdx),%rcx
    57e6:	48 85 c9             	test   %rcx,%rcx
    57e9:	74 08                	je     57f3 <__list_extract_given_node+0x33>
    57eb:	48 89 41 08          	mov    %rax,0x8(%rcx)
    57ef:	48 8b 42 08          	mov    0x8(%rdx),%rax
    57f3:	48 85 c0             	test   %rax,%rax
    57f6:	74 03                	je     57fb <__list_extract_given_node+0x3b>
    57f8:	48 89 08             	mov    %rcx,(%rax)
    57fb:	66 0f 6f 05 4d f8 00 	movdqa 0xf84d(%rip),%xmm0        # 15050 <__PRETTY_FUNCTION__.5886+0x870>
    5802:	00 
    5803:	48 83 ef 01          	sub    $0x1,%rdi
    5807:	4c 89 c0             	mov    %r8,%rax
    580a:	0f 11 02             	movups %xmm0,(%rdx)
    580d:	48 89 3e             	mov    %rdi,(%rsi)
    5810:	c3                   	retq   
    5811:	0f 1f 80 00 00 00 00 	nopl   0x0(%rax)
    5818:	48 89 46 10          	mov    %rax,0x10(%rsi)
    581c:	48 85 c0             	test   %rax,%rax
    581f:	74 3f                	je     5860 <__list_extract_given_node+0xa0>
    5821:	48 c7 00 00 00 00 00 	movq   $0x0,(%rax)
    5828:	48 8b 0a             	mov    (%rdx),%rcx
    582b:	48 85 c9             	test   %rcx,%rcx
    582e:	75 bb                	jne    57eb <__list_extract_given_node+0x2b>
    5830:	eb c6                	jmp    57f8 <__list_extract_given_node+0x38>
    5832:	66 0f 1f 44 00 00    	nopw   0x0(%rax,%rax,1)
    5838:	48 8b 0a             	mov    (%rdx),%rcx
    583b:	48 89 4e 08          	mov    %rcx,0x8(%rsi)
    583f:	48 85 c9             	test   %rcx,%rcx
    5842:	74 2c                	je     5870 <__list_extract_given_node+0xb0>
    5844:	48 c7 41 08 00 00 00 	movq   $0x0,0x8(%rcx)
    584b:	00 
    584c:	48 8b 42 08          	mov    0x8(%rdx),%rax
    5850:	49 39 d1             	cmp    %rdx,%r9
    5853:	75 96                	jne    57eb <__list_extract_given_node+0x2b>
    5855:	48 89 46 10          	mov    %rax,0x10(%rsi)
    5859:	48 85 c0             	test   %rax,%rax
    585c:	75 c3                	jne    5821 <__list_extract_given_node+0x61>
    585e:	eb 8b                	jmp    57eb <__list_extract_given_node+0x2b>
    5860:	48 8b 0a             	mov    (%rdx),%rcx
    5863:	48 85 c9             	test   %rcx,%rcx
    5866:	0f 85 7f ff ff ff    	jne    57eb <__list_extract_given_node+0x2b>
    586c:	eb 8d                	jmp    57fb <__list_extract_given_node+0x3b>
    586e:	66 90                	xchg   %ax,%ax
    5870:	48 8b 42 08          	mov    0x8(%rdx),%rax
    5874:	49 39 d1             	cmp    %rdx,%r9
    5877:	0f 85 76 ff ff ff    	jne    57f3 <__list_extract_given_node+0x33>
    587d:	48 89 46 10          	mov    %rax,0x10(%rsi)
    5881:	48 85 c0             	test   %rax,%rax
    5884:	75 9b                	jne    5821 <__list_extract_given_node+0x61>
    5886:	e9 70 ff ff ff       	jmpq   57fb <__list_extract_given_node+0x3b>
    588b:	50                   	push   %rax
    588c:	48 8d 0d 6d ee 00 00 	lea    0xee6d(%rip),%rcx        # 14700 <__PRETTY_FUNCTION__.6056>
    5893:	ba 23 03 00 00       	mov    $0x323,%edx
    5898:	48 8d 35 29 f0 00 00 	lea    0xf029(%rip),%rsi        # 148c8 <__PRETTY_FUNCTION__.5886+0xe8>
    589f:	48 8d 3d 33 f0 00 00 	lea    0xf033(%rip),%rdi        # 148d9 <__PRETTY_FUNCTION__.5886+0xf9>
    58a6:	e8 75 bf ff ff       	callq  1820 <__assert_fail@plt>
    58ab:	0f 1f 44 00 00       	nopl   0x0(%rax,%rax,1)

00000000000058b0 <list_allocate_node_buffer_from_list>:
    58b0:	41 54                	push   %r12
    58b2:	55                   	push   %rbp
    58b3:	53                   	push   %rbx
    58b4:	48 89 d3             	mov    %rdx,%rbx
    58b7:	48 83 ec 10          	sub    $0x10,%rsp
    58bb:	48 8b 6a 08          	mov    0x8(%rdx),%rbp
    58bf:	64 48 8b 04 25 28 00 	mov    %fs:0x28,%rax
    58c6:	00 00 
    58c8:	48 89 44 24 08       	mov    %rax,0x8(%rsp)
    58cd:	31 c0                	xor    %eax,%eax
    58cf:	48 85 ed             	test   %rbp,%rbp
    58d2:	74 7c                	je     5950 <list_allocate_node_buffer_from_list+0xa0>
    58d4:	48 8b 02             	mov    (%rdx),%rax
    58d7:	4c 8b 62 10          	mov    0x10(%rdx),%r12
    58db:	48 8d 48 ff          	lea    -0x1(%rax),%rcx
    58df:	48 8b 45 00          	mov    0x0(%rbp),%rax
    58e3:	4c 8d 45 10          	lea    0x10(%rbp),%r8
    58e7:	48 89 43 08          	mov    %rax,0x8(%rbx)
    58eb:	48 85 c0             	test   %rax,%rax
    58ee:	0f 84 d9 00 00 00    	je     59cd <list_allocate_node_buffer_from_list+0x11d>
    58f4:	48 c7 40 08 00 00 00 	movq   $0x0,0x8(%rax)
    58fb:	00 
    58fc:	4c 39 e5             	cmp    %r12,%rbp
    58ff:	0f 84 2c 01 00 00    	je     5a31 <list_allocate_node_buffer_from_list+0x181>
    5905:	48 8b 55 08          	mov    0x8(%rbp),%rdx
    5909:	48 89 50 08          	mov    %rdx,0x8(%rax)
    590d:	48 8b 55 08          	mov    0x8(%rbp),%rdx
    5911:	48 85 d2             	test   %rdx,%rdx
    5914:	74 03                	je     5919 <list_allocate_node_buffer_from_list+0x69>
    5916:	48 89 02             	mov    %rax,(%rdx)
    5919:	66 0f 6f 05 2f f7 00 	movdqa 0xf72f(%rip),%xmm0        # 15050 <__PRETTY_FUNCTION__.5886+0x870>
    5920:	00 
    5921:	0f 11 45 00          	movups %xmm0,0x0(%rbp)
    5925:	48 89 0b             	mov    %rcx,(%rbx)
    5928:	48 8b 44 24 08       	mov    0x8(%rsp),%rax
    592d:	64 48 33 04 25 28 00 	xor    %fs:0x28,%rax
    5934:	00 00 
    5936:	0f 85 07 01 00 00    	jne    5a43 <list_allocate_node_buffer_from_list+0x193>
    593c:	48 83 c4 10          	add    $0x10,%rsp
    5940:	4c 89 c0             	mov    %r8,%rax
    5943:	5b                   	pop    %rbx
    5944:	5d                   	pop    %rbp
    5945:	41 5c                	pop    %r12
    5947:	c3                   	retq   
    5948:	0f 1f 84 00 00 00 00 	nopl   0x0(%rax,%rax,1)
    594f:	00 
    5950:	4c 8b 25 c9 38 34 00 	mov    0x3438c9(%rip),%r12        # 349220 <node_size_msg_t>
    5957:	48 89 e7             	mov    %rsp,%rdi
    595a:	be 40 00 00 00       	mov    $0x40,%esi
    595f:	49 69 d4 f4 01 00 00 	imul   $0x1f4,%r12,%rdx
    5966:	e8 05 c1 ff ff       	callq  1a70 <posix_memalign@plt>
    596b:	85 c0                	test   %eax,%eax
    596d:	0f 85 ad 00 00 00    	jne    5a20 <list_allocate_node_buffer_from_list+0x170>
    5973:	48 8b 34 24          	mov    (%rsp),%rsi
    5977:	48 8b 3b             	mov    (%rbx),%rdi
    597a:	ba f4 01 00 00       	mov    $0x1f4,%edx
    597f:	66 0f ef c0          	pxor   %xmm0,%xmm0
    5983:	48 89 f0             	mov    %rsi,%rax
    5986:	eb 1f                	jmp    59a7 <list_allocate_node_buffer_from_list+0xf7>
    5988:	0f 1f 84 00 00 00 00 	nopl   0x0(%rax,%rax,1)
    598f:	00 
    5990:	48 8b 4b 10          	mov    0x10(%rbx),%rcx
    5994:	48 89 48 08          	mov    %rcx,0x8(%rax)
    5998:	48 89 01             	mov    %rax,(%rcx)
    599b:	48 89 43 10          	mov    %rax,0x10(%rbx)
    599f:	4c 01 e0             	add    %r12,%rax
    59a2:	83 ea 01             	sub    $0x1,%edx
    59a5:	74 59                	je     5a00 <list_allocate_node_buffer_from_list+0x150>
    59a7:	0f 11 00             	movups %xmm0,(%rax)
    59aa:	48 85 ed             	test   %rbp,%rbp
    59ad:	75 e1                	jne    5990 <list_allocate_node_buffer_from_list+0xe0>
    59af:	66 48 0f 6e c8       	movq   %rax,%xmm1
    59b4:	4a 8d 0c 20          	lea    (%rax,%r12,1),%rcx
    59b8:	48 89 c5             	mov    %rax,%rbp
    59bb:	66 0f 6c c9          	punpcklqdq %xmm1,%xmm1
    59bf:	0f 11 4b 08          	movups %xmm1,0x8(%rbx)
    59c3:	83 ea 01             	sub    $0x1,%edx
    59c6:	74 38                	je     5a00 <list_allocate_node_buffer_from_list+0x150>
    59c8:	48 89 c8             	mov    %rcx,%rax
    59cb:	eb da                	jmp    59a7 <list_allocate_node_buffer_from_list+0xf7>
    59cd:	4c 39 e5             	cmp    %r12,%rbp
    59d0:	0f 85 37 ff ff ff    	jne    590d <list_allocate_node_buffer_from_list+0x5d>
    59d6:	48 8b 55 08          	mov    0x8(%rbp),%rdx
    59da:	48 89 53 10          	mov    %rdx,0x10(%rbx)
    59de:	48 85 d2             	test   %rdx,%rdx
    59e1:	0f 84 32 ff ff ff    	je     5919 <list_allocate_node_buffer_from_list+0x69>
    59e7:	48 c7 02 00 00 00 00 	movq   $0x0,(%rdx)
    59ee:	48 8b 45 00          	mov    0x0(%rbp),%rax
    59f2:	48 85 c0             	test   %rax,%rax
    59f5:	0f 85 0e ff ff ff    	jne    5909 <list_allocate_node_buffer_from_list+0x59>
    59fb:	e9 16 ff ff ff       	jmpq   5916 <list_allocate_node_buffer_from_list+0x66>
    5a00:	4d 69 e4 f3 01 00 00 	imul   $0x1f3,%r12,%r12
    5a07:	48 8d 8f f3 01 00 00 	lea    0x1f3(%rdi),%rcx
    5a0e:	48 81 c7 f4 01 00 00 	add    $0x1f4,%rdi
    5a15:	48 89 3b             	mov    %rdi,(%rbx)
    5a18:	49 01 f4             	add    %rsi,%r12
    5a1b:	e9 bf fe ff ff       	jmpq   58df <list_allocate_node_buffer_from_list+0x2f>
    5a20:	48 8d 3d 05 ef 00 00 	lea    0xef05(%rip),%rdi        # 1492c <__PRETTY_FUNCTION__.5886+0x14c>
    5a27:	e8 14 bd ff ff       	callq  1740 <puts@plt>
    5a2c:	e8 7f bc ff ff       	callq  16b0 <abort@plt>
    5a31:	48 8b 55 08          	mov    0x8(%rbp),%rdx
    5a35:	48 89 53 10          	mov    %rdx,0x10(%rbx)
    5a39:	48 85 d2             	test   %rdx,%rdx
    5a3c:	75 a9                	jne    59e7 <list_allocate_node_buffer_from_list+0x137>
    5a3e:	e9 c6 fe ff ff       	jmpq   5909 <list_allocate_node_buffer_from_list+0x59>
    5a43:	e8 58 bd ff ff       	callq  17a0 <__stack_chk_fail@plt>
    5a48:	0f 1f 84 00 00 00 00 	nopl   0x0(%rax,%rax,1)
    5a4f:	00 

0000000000005a50 <__list_insert_tail_by_nodes>:
    5a50:	48 83 7f 08 00       	cmpq   $0x0,0x8(%rdi)
    5a55:	48 8b 47 10          	mov    0x10(%rdi),%rax
    5a59:	74 1d                	je     5a78 <__list_insert_tail_by_nodes+0x28>
    5a5b:	48 89 42 08          	mov    %rax,0x8(%rdx)
    5a5f:	48 89 10             	mov    %rdx,(%rax)
    5a62:	48 c7 01 00 00 00 00 	movq   $0x0,(%rcx)
    5a69:	48 01 37             	add    %rsi,(%rdi)
    5a6c:	48 89 4f 10          	mov    %rcx,0x10(%rdi)
    5a70:	c3                   	retq   
    5a71:	0f 1f 80 00 00 00 00 	nopl   0x0(%rax)
    5a78:	48 85 c0             	test   %rax,%rax
    5a7b:	75 1b                	jne    5a98 <__list_insert_tail_by_nodes+0x48>
    5a7d:	48 c7 42 08 00 00 00 	movq   $0x0,0x8(%rdx)
    5a84:	00 
    5a85:	48 89 57 08          	mov    %rdx,0x8(%rdi)
    5a89:	48 c7 01 00 00 00 00 	movq   $0x0,(%rcx)
    5a90:	48 01 37             	add    %rsi,(%rdi)
    5a93:	48 89 4f 10          	mov    %rcx,0x10(%rdi)
    5a97:	c3                   	retq   
    5a98:	50                   	push   %rax
    5a99:	48 8d 0d 40 ec 00 00 	lea    0xec40(%rip),%rcx        # 146e0 <__PRETTY_FUNCTION__.6077>
    5aa0:	ba 7b 03 00 00       	mov    $0x37b,%edx
    5aa5:	48 8d 35 1c ee 00 00 	lea    0xee1c(%rip),%rsi        # 148c8 <__PRETTY_FUNCTION__.5886+0xe8>
    5aac:	48 8d 3d 96 ee 00 00 	lea    0xee96(%rip),%rdi        # 14949 <__PRETTY_FUNCTION__.5886+0x169>
    5ab3:	e8 68 bd ff ff       	callq  1820 <__assert_fail@plt>
    5ab8:	0f 1f 84 00 00 00 00 	nopl   0x0(%rax,%rax,1)
    5abf:	00 

0000000000005ac0 <list_next_f>:
    5ac0:	48 8b 47 f0          	mov    -0x10(%rdi),%rax
    5ac4:	48 8d 50 10          	lea    0x10(%rax),%rdx
    5ac8:	48 85 c0             	test   %rax,%rax
    5acb:	48 0f 45 c2          	cmovne %rdx,%rax
    5acf:	c3                   	retq   

0000000000005ad0 <list_prev_f>:
    5ad0:	48 8b 47 f8          	mov    -0x8(%rdi),%rax
    5ad4:	48 8d 50 10          	lea    0x10(%rax),%rdx
    5ad8:	48 85 c0             	test   %rax,%rax
    5adb:	48 0f 45 c2          	cmovne %rdx,%rax
    5adf:	c3                   	retq   

0000000000005ae0 <list_search_error>:
    5ae0:	48 8b 47 08          	mov    0x8(%rdi),%rax
    5ae4:	48 85 c0             	test   %rax,%rax
    5ae7:	75 0f                	jne    5af8 <list_search_error+0x18>
    5ae9:	eb 18                	jmp    5b03 <list_search_error+0x23>
    5aeb:	0f 1f 44 00 00       	nopl   0x0(%rax,%rax,1)
    5af0:	48 8b 00             	mov    (%rax),%rax
    5af3:	48 85 c0             	test   %rax,%rax
    5af6:	74 0b                	je     5b03 <list_search_error+0x23>
    5af8:	f2 48 0f 2c 50 18    	cvttsd2si 0x18(%rax),%rdx
    5afe:	3b 50 28             	cmp    0x28(%rax),%edx
    5b01:	74 ed                	je     5af0 <list_search_error+0x10>
    5b03:	c3                   	retq   
    5b04:	66 90                	xchg   %ax,%ax
    5b06:	66 2e 0f 1f 84 00 00 	nopw   %cs:0x0(%rax,%rax,1)
    5b0d:	00 00 00 

0000000000005b10 <list_print_error>:
    5b10:	41 57                	push   %r15
    5b12:	41 56                	push   %r14
    5b14:	41 55                	push   %r13
    5b16:	41 54                	push   %r12
    5b18:	55                   	push   %rbp
    5b19:	53                   	push   %rbx
    5b1a:	48 83 ec 08          	sub    $0x8,%rsp
    5b1e:	48 8b 5f 08          	mov    0x8(%rdi),%rbx
    5b22:	48 85 db             	test   %rbx,%rbx
    5b25:	0f 84 ae 00 00 00    	je     5bd9 <list_print_error+0xc9>
    5b2b:	48 8d 2d 38 ee 00 00 	lea    0xee38(%rip),%rbp        # 1496a <__PRETTY_FUNCTION__.5886+0x18a>
